(dp1
S'categorie'
p2
S'CHAR(64)'
p3
sS'tags'
p4
S'TEXT'
p5
sS'dislike_nb'
p6
S'INTEGER'
p7
sS'like_nb'
p8
S'INTEGER'
p9
sS'id'
p10
S'INTEGER PRIMARY KEY AUTOINCREMENT'
p11
sS'content'
p12
S'TEXT'
p13
sS'date_created'
p14
S'TIMESTAMP'
p15
sS'title'
p16
S'CHAR(128)'
p17
sS'user_name'
p18
S'CHAR(512)'
p19
sS'image_src'
p20
S'CHAR(512)'
p21
sS'approved'
p22
S'CHAR(1)'
p23
s.