(dp1
S'title'
p2
S'CHAR(128)'
p3
sS'dislike_nb'
p4
S'INTEGER'
p5
sS'like_nb'
p6
S'INTEGER'
p7
sS'content'
p8
S'TEXT'
p9
sS'article'
p10
S'INTEGER REFERENCES articles(id) ON DELETE CASCADE'
p11
sS'date_created'
p12
S'TIMESTAMP'
p13
sS'user_name'
p14
S'CHAR(512)'
p15
sS'id'
p16
S'INTEGER PRIMARY KEY AUTOINCREMENT'
p17
s.