(dp1
S'username'
p2
S'CHAR(128)'
p3
sS'first_name'
p4
S'CHAR(512)'
p5
sS'last_name'
p6
S'CHAR(512)'
p7
sS'registration_id'
p8
S'CHAR(512)'
p9
sS'email'
p10
S'CHAR(128) UNIQUE'
p11
sS'reset_password_key'
p12
S'CHAR(512)'
p13
sS'password'
p14
S'CHAR(512)'
p15
sS'registration_key'
p16
S'CHAR(512)'
p17
sS'id'
p18
S'INTEGER PRIMARY KEY AUTOINCREMENT'
p19
s.