(dp1
S'output'
p2
S''
sS'layer'
p3
S'/home/strzel_a/web2py/applications/bench/models/menu.py'
p4
sS'code'
p5
S'# -*- coding: utf-8 -*-\n\n#########################################################################\n## Customize your APP title, subtitle and menus here\n#########################################################################\n\nresponse.title = \'Template app\'\n\nresponse.subtitle = T(\'customize me!\')\n\n########################################################################\n# Data that will be append to the beginning\n# of views/layouts/layout.html\n#\n# More infos about meta : http://dev.w3.org/html5/markup/meta.name.html\n########################################################################\n\nresponse.meta.author = \'Strzelewicz Alexandre\'\nresponse.meta.description = \'\'\nresponse.meta.keywords = \'\'\nresponse.meta.generator = \'\'\nresponse.meta.copyright = \'Copyright 2010-2012\'\n\n########################################################################\n#\n# Automatic files minification\n#\n########################################################################\n\n@cache(request.env.path_info, time_expire=999999, cache_model=cache.ram)\ndef get_urls():\n    logger.info("+----------- URL update")\n    #\n    # Here we include files that will be included on\n    # views/layouts/layout.html\n    #\n    # By adding them here, each files will be minimized\n    # if the server is set on PRODUCTION environment\n    #\n    js_files = [\n        URL(\'static\', \'js/jquery-1.5.2.js\'),\n        URL(\'static\', \'js/main.js\')\n        ]\n    css_files = [\n        URL(\'static\', \'css/base.css\'),\n        URL(\'static\', \'css/main.css\')\n        ]\n    return js_files, css_files\n\n(js_files, css_files) = get_urls()\n\nprod = True\n#@cache(request.env.path_info, time_expire=999999, cache_model=cache.ram)\ndef minify_prod():\n    #\n    # This function will be called for minimizing CSS and JS\n    # on production environment\n    #\n    logger.info("+----------- File minification")\n    global css_files\n    global js_files\n    compress = local_import(\'pack\')\n    OUTCSS = compress.process_css(css_files, app_name)\n    #OUTJS = compress.process_js(js_files, app_name)\n    return OUTJS, OUTCSS\n\n#\n#\n#\nif prod==True:\n    (OUTJS, OUTCSS) = minify_prod()\n    css_files = [URL(\'static\', OUTCSS)]\n    js_files = [URL(\'static\', OUTJS)]\n\n'
p6
sS'snapshot'
p7
(dp8
S'exception'
p9
(dp10
S'__getslice__'
p11
S"<method-wrapper '__getslice__' of exceptions.IOError object>"
p12
sS'__str__'
p13
S"<method-wrapper '__str__' of exceptions.IOError object>"
p14
sS'__reduce__'
p15
S'<built-in method __reduce__ of exceptions.IOError object>'
p16
sS'__dict__'
p17
S'{}'
p18
sS'__sizeof__'
p19
S'<built-in method __sizeof__ of exceptions.IOError object>'
p20
sS'__init__'
p21
S"<method-wrapper '__init__' of exceptions.IOError object>"
p22
sS'__setattr__'
p23
S"<method-wrapper '__setattr__' of exceptions.IOError object>"
p24
sS'__reduce_ex__'
p25
S'<built-in method __reduce_ex__ of exceptions.IOError object>'
p26
sS'__new__'
p27
S'<built-in method __new__ of type object>'
p28
sS'errno'
p29
S'2'
sS'__format__'
p30
S'<built-in method __format__ of exceptions.IOError object>'
p31
sS'__class__'
p32
S"<type 'exceptions.IOError'>"
p33
sS'filename'
p34
S"'bench/static/min.css'"
p35
sS'__doc__'
p36
S"'I/O operation failed.'"
p37
sS'__getitem__'
p38
S"<method-wrapper '__getitem__' of exceptions.IOError object>"
p39
sS'__setstate__'
p40
S'<built-in method __setstate__ of exceptions.IOError object>'
p41
sS'__getattribute__'
p42
S"<method-wrapper '__getattribute__' of exceptions.IOError object>"
p43
sS'args'
p44
S"(2, 'No such file or directory')"
p45
sS'__subclasshook__'
p46
S'<built-in method __subclasshook__ of type object>'
p47
sS'__unicode__'
p48
S'<built-in method __unicode__ of exceptions.IOError object>'
p49
sS'strerror'
p50
S"'No such file or directory'"
p51
sS'__delattr__'
p52
S"<method-wrapper '__delattr__' of exceptions.IOError object>"
p53
sS'__repr__'
p54
S"<method-wrapper '__repr__' of exceptions.IOError object>"
p55
sS'__hash__'
p56
S"<method-wrapper '__hash__' of exceptions.IOError object>"
p57
ssS'evalue'
p58
S"[Errno 2] No such file or directory: 'bench/static/min.css'"
p59
sS'request'
p60
ccopy_reg
_reconstructor
p61
(cgluon.html
BEAUTIFY
p62
c__builtin__
object
p63
NtRp64
(dp65
S'attributes'
p66
(dp67
sS'components'
p68
(lp69
g61
(cgluon.html
TABLE
p70
g63
NtRp71
(dp72
g66
(dp73
S'level'
p74
I5
ssS'parent'
p75
Nsg68
(lp76
g61
(cgluon.html
TR
p77
g63
NtRp78
(dp79
g66
(dp80
sg75
g71
sg68
(lp81
g61
(cgluon.html
TD
p82
g63
NtRp83
(dp84
g66
(dp85
S'_style'
p86
S'font-weight:bold;'
p87
ssg75
g78
sg68
(lp88
S'ajax'
p89
asbag61
(g82
g63
NtRp90
(dp91
g66
(dp92
S'_valign'
p93
S'top'
p94
ssg75
g78
sg68
(lp95
S':'
asbag61
(g82
g63
NtRp96
(dp97
g66
(dp98
sg75
g78
sg68
(lp99
g61
(g62
g63
NtRp100
(dp101
g66
(dp102
g74
I5
ssg75
g96
sg68
(lp103
S'False'
p104
asbasbasbag61
(g77
g63
NtRp105
(dp106
g66
(dp107
sg75
g71
sg68
(lp108
g61
(g82
g63
NtRp109
(dp110
g66
(dp111
g86
g87
ssg75
g105
sg68
(lp112
S'application'
p113
asbag61
(g82
g63
NtRp114
(dp115
g66
(dp116
g93
g94
ssg75
g105
sg68
(lp117
S':'
asbag61
(g82
g63
NtRp118
(dp119
g66
(dp120
sg75
g105
sg68
(lp121
g61
(g62
g63
NtRp122
(dp123
g66
(dp124
g74
I5
ssg75
g118
sg68
(lp125
S'bench'
p126
asbasbasbag61
(g77
g63
NtRp127
(dp128
g66
(dp129
sg75
g71
sg68
(lp130
g61
(g82
g63
NtRp131
(dp132
g66
(dp133
g86
g87
ssg75
g127
sg68
(lp134
g44
asbag61
(g82
g63
NtRp135
(dp136
g66
(dp137
g93
g94
ssg75
g127
sg68
(lp138
S':'
asbag61
(g82
g63
NtRp139
(dp140
g66
(dp141
sg75
g127
sg68
(lp142
g61
(g62
g63
NtRp143
(dp144
g66
(dp145
g74
I5
ssg75
g139
sg68
(lp146
g61
(g70
g63
NtRp147
(dp148
g66
(dp149
g74
I4
ssg75
Nsg68
(lp150
sbasbasbasbag61
(g77
g63
NtRp151
(dp152
g66
(dp153
sg75
g71
sg68
(lp154
g61
(g82
g63
NtRp155
(dp156
g66
(dp157
g86
g87
ssg75
g151
sg68
(lp158
S'body'
p159
asbag61
(g82
g63
NtRp160
(dp161
g66
(dp162
g93
g94
ssg75
g151
sg68
(lp163
S':'
asbag61
(g82
g63
NtRp164
(dp165
g66
(dp166
sg75
g151
sg68
(lp167
g61
(g62
g63
NtRp168
(dp169
g66
(dp170
g74
I5
ssg75
g164
sg68
(lp171
S'<cStringIO.StringO object at 0x27dc880>'
p172
asbasbasbag61
(g77
g63
NtRp173
(dp174
g66
(dp175
sg75
g71
sg68
(lp176
g61
(g82
g63
NtRp177
(dp178
g66
(dp179
g86
g87
ssg75
g173
sg68
(lp180
S'client'
p181
asbag61
(g82
g63
NtRp182
(dp183
g66
(dp184
g93
g94
ssg75
g173
sg68
(lp185
S':'
asbag61
(g82
g63
NtRp186
(dp187
g66
(dp188
sg75
g173
sg68
(lp189
g61
(g62
g63
NtRp190
(dp191
g66
(dp192
g74
I5
ssg75
g186
sg68
(lp193
S'127.0.0.1'
p194
asbasbasbag61
(g77
g63
NtRp195
(dp196
g66
(dp197
sg75
g71
sg68
(lp198
g61
(g82
g63
NtRp199
(dp200
g66
(dp201
g86
g87
ssg75
g195
sg68
(lp202
S'controller'
p203
asbag61
(g82
g63
NtRp204
(dp205
g66
(dp206
g93
g94
ssg75
g195
sg68
(lp207
S':'
asbag61
(g82
g63
NtRp208
(dp209
g66
(dp210
sg75
g195
sg68
(lp211
g61
(g62
g63
NtRp212
(dp213
g66
(dp214
g74
I5
ssg75
g208
sg68
(lp215
S'default'
p216
asbasbasbag61
(g77
g63
NtRp217
(dp218
g66
(dp219
sg75
g71
sg68
(lp220
g61
(g82
g63
NtRp221
(dp222
g66
(dp223
g86
g87
ssg75
g217
sg68
(lp224
S'cookies'
p225
asbag61
(g82
g63
NtRp226
(dp227
g66
(dp228
g93
g94
ssg75
g217
sg68
(lp229
S':'
asbag61
(g82
g63
NtRp230
(dp231
g66
(dp232
sg75
g217
sg68
(lp233
g61
(g62
g63
NtRp234
(dp235
g66
(dp236
g74
I5
ssg75
g230
sg68
(lp237
g61
(g70
g63
NtRp238
(dp239
g66
(dp240
g74
I4
ssg75
Nsg68
(lp241
g61
(g77
g63
NtRp242
(dp243
g66
(dp244
sg75
g238
sg68
(lp245
g61
(g82
g63
NtRp246
(dp247
g66
(dp248
g86
g87
ssg75
g242
sg68
(lp249
S'csrftoken'
p250
asbag61
(g82
g63
NtRp251
(dp252
g66
(dp253
g93
g94
ssg75
g242
sg68
(lp254
S':'
asbag61
(g82
g63
NtRp255
(dp256
g66
(dp257
sg75
g242
sg68
(lp258
g61
(g62
g63
NtRp259
(dp260
g66
(dp261
g74
I4
ssg75
g255
sg68
(lp262
g61
(g70
g63
NtRp263
(dp264
g66
(dp265
g74
I3
ssg75
Nsg68
(lp266
g61
(g77
g63
NtRp267
(dp268
g66
(dp269
sg75
g263
sg68
(lp270
g61
(g82
g63
NtRp271
(dp272
g66
(dp273
g86
g87
ssg75
g267
sg68
(lp274
S'comment'
p275
asbag61
(g82
g63
NtRp276
(dp277
g66
(dp278
g93
g94
ssg75
g267
sg68
(lp279
S':'
asbag61
(g82
g63
NtRp280
(dp281
g66
(dp282
sg75
g267
sg68
(lp283
g61
(g62
g63
NtRp284
(dp285
g66
(dp286
g74
I3
ssg75
g280
sg68
(lp287
S''
asbasbasbag61
(g77
g63
NtRp288
(dp289
g66
(dp290
sg75
g263
sg68
(lp291
g61
(g82
g63
NtRp292
(dp293
g66
(dp294
g86
g87
ssg75
g288
sg68
(lp295
S'domain'
p296
asbag61
(g82
g63
NtRp297
(dp298
g66
(dp299
g93
g94
ssg75
g288
sg68
(lp300
S':'
asbag61
(g82
g63
NtRp301
(dp302
g66
(dp303
sg75
g288
sg68
(lp304
g61
(g62
g63
NtRp305
(dp306
g66
(dp307
g74
I3
ssg75
g301
sg68
(lp308
S''
asbasbasbag61
(g77
g63
NtRp309
(dp310
g66
(dp311
sg75
g263
sg68
(lp312
g61
(g82
g63
NtRp313
(dp314
g66
(dp315
g86
g87
ssg75
g309
sg68
(lp316
S'expires'
p317
asbag61
(g82
g63
NtRp318
(dp319
g66
(dp320
g93
g94
ssg75
g309
sg68
(lp321
S':'
asbag61
(g82
g63
NtRp322
(dp323
g66
(dp324
sg75
g309
sg68
(lp325
g61
(g62
g63
NtRp326
(dp327
g66
(dp328
g74
I3
ssg75
g322
sg68
(lp329
S''
asbasbasbag61
(g77
g63
NtRp330
(dp331
g66
(dp332
sg75
g263
sg68
(lp333
g61
(g82
g63
NtRp334
(dp335
g66
(dp336
g86
g87
ssg75
g330
sg68
(lp337
S'httponly'
p338
asbag61
(g82
g63
NtRp339
(dp340
g66
(dp341
g93
g94
ssg75
g330
sg68
(lp342
S':'
asbag61
(g82
g63
NtRp343
(dp344
g66
(dp345
sg75
g330
sg68
(lp346
g61
(g62
g63
NtRp347
(dp348
g66
(dp349
g74
I3
ssg75
g343
sg68
(lp350
S''
asbasbasbag61
(g77
g63
NtRp351
(dp352
g66
(dp353
sg75
g263
sg68
(lp354
g61
(g82
g63
NtRp355
(dp356
g66
(dp357
g86
g87
ssg75
g351
sg68
(lp358
S'max-age'
p359
asbag61
(g82
g63
NtRp360
(dp361
g66
(dp362
g93
g94
ssg75
g351
sg68
(lp363
S':'
asbag61
(g82
g63
NtRp364
(dp365
g66
(dp366
sg75
g351
sg68
(lp367
g61
(g62
g63
NtRp368
(dp369
g66
(dp370
g74
I3
ssg75
g364
sg68
(lp371
S''
asbasbasbag61
(g77
g63
NtRp372
(dp373
g66
(dp374
sg75
g263
sg68
(lp375
g61
(g82
g63
NtRp376
(dp377
g66
(dp378
g86
g87
ssg75
g372
sg68
(lp379
S'path'
p380
asbag61
(g82
g63
NtRp381
(dp382
g66
(dp383
g93
g94
ssg75
g372
sg68
(lp384
S':'
asbag61
(g82
g63
NtRp385
(dp386
g66
(dp387
sg75
g372
sg68
(lp388
g61
(g62
g63
NtRp389
(dp390
g66
(dp391
g74
I3
ssg75
g385
sg68
(lp392
S''
asbasbasbag61
(g77
g63
NtRp393
(dp394
g66
(dp395
sg75
g263
sg68
(lp396
g61
(g82
g63
NtRp397
(dp398
g66
(dp399
g86
g87
ssg75
g393
sg68
(lp400
S'secure'
p401
asbag61
(g82
g63
NtRp402
(dp403
g66
(dp404
g93
g94
ssg75
g393
sg68
(lp405
S':'
asbag61
(g82
g63
NtRp406
(dp407
g66
(dp408
sg75
g393
sg68
(lp409
g61
(g62
g63
NtRp410
(dp411
g66
(dp412
g74
I3
ssg75
g406
sg68
(lp413
S''
asbasbasbag61
(g77
g63
NtRp414
(dp415
g66
(dp416
sg75
g263
sg68
(lp417
g61
(g82
g63
NtRp418
(dp419
g66
(dp420
g86
g87
ssg75
g414
sg68
(lp421
S'version'
p422
asbag61
(g82
g63
NtRp423
(dp424
g66
(dp425
g93
g94
ssg75
g414
sg68
(lp426
S':'
asbag61
(g82
g63
NtRp427
(dp428
g66
(dp429
sg75
g414
sg68
(lp430
g61
(g62
g63
NtRp431
(dp432
g66
(dp433
g74
I3
ssg75
g427
sg68
(lp434
S''
asbasbasbasbasbasbasbag61
(g77
g63
NtRp435
(dp436
g66
(dp437
sg75
g238
sg68
(lp438
g61
(g82
g63
NtRp439
(dp440
g66
(dp441
g86
g87
ssg75
g435
sg68
(lp442
S'lbk'
p443
asbag61
(g82
g63
NtRp444
(dp445
g66
(dp446
g93
g94
ssg75
g435
sg68
(lp447
S':'
asbag61
(g82
g63
NtRp448
(dp449
g66
(dp450
sg75
g435
sg68
(lp451
g61
(g62
g63
NtRp452
(dp453
g66
(dp454
g74
I4
ssg75
g448
sg68
(lp455
g61
(g70
g63
NtRp456
(dp457
g66
(dp458
g74
I3
ssg75
Nsg68
(lp459
g61
(g77
g63
NtRp460
(dp461
g66
(dp462
sg75
g456
sg68
(lp463
g61
(g82
g63
NtRp464
(dp465
g66
(dp466
g86
g87
ssg75
g460
sg68
(lp467
g275
asbag61
(g82
g63
NtRp468
(dp469
g66
(dp470
g93
g94
ssg75
g460
sg68
(lp471
S':'
asbag61
(g82
g63
NtRp472
(dp473
g66
(dp474
sg75
g460
sg68
(lp475
g61
(g62
g63
NtRp476
(dp477
g66
(dp478
g74
I3
ssg75
g472
sg68
(lp479
S''
asbasbasbag61
(g77
g63
NtRp480
(dp481
g66
(dp482
sg75
g456
sg68
(lp483
g61
(g82
g63
NtRp484
(dp485
g66
(dp486
g86
g87
ssg75
g480
sg68
(lp487
g296
asbag61
(g82
g63
NtRp488
(dp489
g66
(dp490
g93
g94
ssg75
g480
sg68
(lp491
S':'
asbag61
(g82
g63
NtRp492
(dp493
g66
(dp494
sg75
g480
sg68
(lp495
g61
(g62
g63
NtRp496
(dp497
g66
(dp498
g74
I3
ssg75
g492
sg68
(lp499
S''
asbasbasbag61
(g77
g63
NtRp500
(dp501
g66
(dp502
sg75
g456
sg68
(lp503
g61
(g82
g63
NtRp504
(dp505
g66
(dp506
g86
g87
ssg75
g500
sg68
(lp507
g317
asbag61
(g82
g63
NtRp508
(dp509
g66
(dp510
g93
g94
ssg75
g500
sg68
(lp511
S':'
asbag61
(g82
g63
NtRp512
(dp513
g66
(dp514
sg75
g500
sg68
(lp515
g61
(g62
g63
NtRp516
(dp517
g66
(dp518
g74
I3
ssg75
g512
sg68
(lp519
S''
asbasbasbag61
(g77
g63
NtRp520
(dp521
g66
(dp522
sg75
g456
sg68
(lp523
g61
(g82
g63
NtRp524
(dp525
g66
(dp526
g86
g87
ssg75
g520
sg68
(lp527
g338
asbag61
(g82
g63
NtRp528
(dp529
g66
(dp530
g93
g94
ssg75
g520
sg68
(lp531
S':'
asbag61
(g82
g63
NtRp532
(dp533
g66
(dp534
sg75
g520
sg68
(lp535
g61
(g62
g63
NtRp536
(dp537
g66
(dp538
g74
I3
ssg75
g532
sg68
(lp539
S''
asbasbasbag61
(g77
g63
NtRp540
(dp541
g66
(dp542
sg75
g456
sg68
(lp543
g61
(g82
g63
NtRp544
(dp545
g66
(dp546
g86
g87
ssg75
g540
sg68
(lp547
g359
asbag61
(g82
g63
NtRp548
(dp549
g66
(dp550
g93
g94
ssg75
g540
sg68
(lp551
S':'
asbag61
(g82
g63
NtRp552
(dp553
g66
(dp554
sg75
g540
sg68
(lp555
g61
(g62
g63
NtRp556
(dp557
g66
(dp558
g74
I3
ssg75
g552
sg68
(lp559
S''
asbasbasbag61
(g77
g63
NtRp560
(dp561
g66
(dp562
sg75
g456
sg68
(lp563
g61
(g82
g63
NtRp564
(dp565
g66
(dp566
g86
g87
ssg75
g560
sg68
(lp567
g380
asbag61
(g82
g63
NtRp568
(dp569
g66
(dp570
g93
g94
ssg75
g560
sg68
(lp571
S':'
asbag61
(g82
g63
NtRp572
(dp573
g66
(dp574
sg75
g560
sg68
(lp575
g61
(g62
g63
NtRp576
(dp577
g66
(dp578
g74
I3
ssg75
g572
sg68
(lp579
S''
asbasbasbag61
(g77
g63
NtRp580
(dp581
g66
(dp582
sg75
g456
sg68
(lp583
g61
(g82
g63
NtRp584
(dp585
g66
(dp586
g86
g87
ssg75
g580
sg68
(lp587
g401
asbag61
(g82
g63
NtRp588
(dp589
g66
(dp590
g93
g94
ssg75
g580
sg68
(lp591
S':'
asbag61
(g82
g63
NtRp592
(dp593
g66
(dp594
sg75
g580
sg68
(lp595
g61
(g62
g63
NtRp596
(dp597
g66
(dp598
g74
I3
ssg75
g592
sg68
(lp599
S''
asbasbasbag61
(g77
g63
NtRp600
(dp601
g66
(dp602
sg75
g456
sg68
(lp603
g61
(g82
g63
NtRp604
(dp605
g66
(dp606
g86
g87
ssg75
g600
sg68
(lp607
g422
asbag61
(g82
g63
NtRp608
(dp609
g66
(dp610
g93
g94
ssg75
g600
sg68
(lp611
S':'
asbag61
(g82
g63
NtRp612
(dp613
g66
(dp614
sg75
g600
sg68
(lp615
g61
(g62
g63
NtRp616
(dp617
g66
(dp618
g74
I3
ssg75
g612
sg68
(lp619
S''
asbasbasbasbasbasbasbag61
(g77
g63
NtRp620
(dp621
g66
(dp622
sg75
g238
sg68
(lp623
g61
(g82
g63
NtRp624
(dp625
g66
(dp626
g86
g87
ssg75
g620
sg68
(lp627
S'session_id_admin'
p628
asbag61
(g82
g63
NtRp629
(dp630
g66
(dp631
g93
g94
ssg75
g620
sg68
(lp632
S':'
asbag61
(g82
g63
NtRp633
(dp634
g66
(dp635
sg75
g620
sg68
(lp636
g61
(g62
g63
NtRp637
(dp638
g66
(dp639
g74
I4
ssg75
g633
sg68
(lp640
g61
(g70
g63
NtRp641
(dp642
g66
(dp643
g74
I3
ssg75
Nsg68
(lp644
g61
(g77
g63
NtRp645
(dp646
g66
(dp647
sg75
g641
sg68
(lp648
g61
(g82
g63
NtRp649
(dp650
g66
(dp651
g86
g87
ssg75
g645
sg68
(lp652
g275
asbag61
(g82
g63
NtRp653
(dp654
g66
(dp655
g93
g94
ssg75
g645
sg68
(lp656
S':'
asbag61
(g82
g63
NtRp657
(dp658
g66
(dp659
sg75
g645
sg68
(lp660
g61
(g62
g63
NtRp661
(dp662
g66
(dp663
g74
I3
ssg75
g657
sg68
(lp664
S''
asbasbasbag61
(g77
g63
NtRp665
(dp666
g66
(dp667
sg75
g641
sg68
(lp668
g61
(g82
g63
NtRp669
(dp670
g66
(dp671
g86
g87
ssg75
g665
sg68
(lp672
g296
asbag61
(g82
g63
NtRp673
(dp674
g66
(dp675
g93
g94
ssg75
g665
sg68
(lp676
S':'
asbag61
(g82
g63
NtRp677
(dp678
g66
(dp679
sg75
g665
sg68
(lp680
g61
(g62
g63
NtRp681
(dp682
g66
(dp683
g74
I3
ssg75
g677
sg68
(lp684
S''
asbasbasbag61
(g77
g63
NtRp685
(dp686
g66
(dp687
sg75
g641
sg68
(lp688
g61
(g82
g63
NtRp689
(dp690
g66
(dp691
g86
g87
ssg75
g685
sg68
(lp692
g317
asbag61
(g82
g63
NtRp693
(dp694
g66
(dp695
g93
g94
ssg75
g685
sg68
(lp696
S':'
asbag61
(g82
g63
NtRp697
(dp698
g66
(dp699
sg75
g685
sg68
(lp700
g61
(g62
g63
NtRp701
(dp702
g66
(dp703
g74
I3
ssg75
g697
sg68
(lp704
S''
asbasbasbag61
(g77
g63
NtRp705
(dp706
g66
(dp707
sg75
g641
sg68
(lp708
g61
(g82
g63
NtRp709
(dp710
g66
(dp711
g86
g87
ssg75
g705
sg68
(lp712
g338
asbag61
(g82
g63
NtRp713
(dp714
g66
(dp715
g93
g94
ssg75
g705
sg68
(lp716
S':'
asbag61
(g82
g63
NtRp717
(dp718
g66
(dp719
sg75
g705
sg68
(lp720
g61
(g62
g63
NtRp721
(dp722
g66
(dp723
g74
I3
ssg75
g717
sg68
(lp724
S''
asbasbasbag61
(g77
g63
NtRp725
(dp726
g66
(dp727
sg75
g641
sg68
(lp728
g61
(g82
g63
NtRp729
(dp730
g66
(dp731
g86
g87
ssg75
g725
sg68
(lp732
g359
asbag61
(g82
g63
NtRp733
(dp734
g66
(dp735
g93
g94
ssg75
g725
sg68
(lp736
S':'
asbag61
(g82
g63
NtRp737
(dp738
g66
(dp739
sg75
g725
sg68
(lp740
g61
(g62
g63
NtRp741
(dp742
g66
(dp743
g74
I3
ssg75
g737
sg68
(lp744
S''
asbasbasbag61
(g77
g63
NtRp745
(dp746
g66
(dp747
sg75
g641
sg68
(lp748
g61
(g82
g63
NtRp749
(dp750
g66
(dp751
g86
g87
ssg75
g745
sg68
(lp752
g380
asbag61
(g82
g63
NtRp753
(dp754
g66
(dp755
g93
g94
ssg75
g745
sg68
(lp756
S':'
asbag61
(g82
g63
NtRp757
(dp758
g66
(dp759
sg75
g745
sg68
(lp760
g61
(g62
g63
NtRp761
(dp762
g66
(dp763
g74
I3
ssg75
g757
sg68
(lp764
S''
asbasbasbag61
(g77
g63
NtRp765
(dp766
g66
(dp767
sg75
g641
sg68
(lp768
g61
(g82
g63
NtRp769
(dp770
g66
(dp771
g86
g87
ssg75
g765
sg68
(lp772
g401
asbag61
(g82
g63
NtRp773
(dp774
g66
(dp775
g93
g94
ssg75
g765
sg68
(lp776
S':'
asbag61
(g82
g63
NtRp777
(dp778
g66
(dp779
sg75
g765
sg68
(lp780
g61
(g62
g63
NtRp781
(dp782
g66
(dp783
g74
I3
ssg75
g777
sg68
(lp784
S''
asbasbasbag61
(g77
g63
NtRp785
(dp786
g66
(dp787
sg75
g641
sg68
(lp788
g61
(g82
g63
NtRp789
(dp790
g66
(dp791
g86
g87
ssg75
g785
sg68
(lp792
g422
asbag61
(g82
g63
NtRp793
(dp794
g66
(dp795
g93
g94
ssg75
g785
sg68
(lp796
S':'
asbag61
(g82
g63
NtRp797
(dp798
g66
(dp799
sg75
g785
sg68
(lp800
g61
(g62
g63
NtRp801
(dp802
g66
(dp803
g74
I3
ssg75
g797
sg68
(lp804
S''
asbasbasbasbasbasbasbag61
(g77
g63
NtRp805
(dp806
g66
(dp807
sg75
g238
sg68
(lp808
g61
(g82
g63
NtRp809
(dp810
g66
(dp811
g86
g87
ssg75
g805
sg68
(lp812
S'session_id_bench'
p813
asbag61
(g82
g63
NtRp814
(dp815
g66
(dp816
g93
g94
ssg75
g805
sg68
(lp817
S':'
asbag61
(g82
g63
NtRp818
(dp819
g66
(dp820
sg75
g805
sg68
(lp821
g61
(g62
g63
NtRp822
(dp823
g66
(dp824
g74
I4
ssg75
g818
sg68
(lp825
g61
(g70
g63
NtRp826
(dp827
g66
(dp828
g74
I3
ssg75
Nsg68
(lp829
g61
(g77
g63
NtRp830
(dp831
g66
(dp832
sg75
g826
sg68
(lp833
g61
(g82
g63
NtRp834
(dp835
g66
(dp836
g86
g87
ssg75
g830
sg68
(lp837
g275
asbag61
(g82
g63
NtRp838
(dp839
g66
(dp840
g93
g94
ssg75
g830
sg68
(lp841
S':'
asbag61
(g82
g63
NtRp842
(dp843
g66
(dp844
sg75
g830
sg68
(lp845
g61
(g62
g63
NtRp846
(dp847
g66
(dp848
g74
I3
ssg75
g842
sg68
(lp849
S''
asbasbasbag61
(g77
g63
NtRp850
(dp851
g66
(dp852
sg75
g826
sg68
(lp853
g61
(g82
g63
NtRp854
(dp855
g66
(dp856
g86
g87
ssg75
g850
sg68
(lp857
g296
asbag61
(g82
g63
NtRp858
(dp859
g66
(dp860
g93
g94
ssg75
g850
sg68
(lp861
S':'
asbag61
(g82
g63
NtRp862
(dp863
g66
(dp864
sg75
g850
sg68
(lp865
g61
(g62
g63
NtRp866
(dp867
g66
(dp868
g74
I3
ssg75
g862
sg68
(lp869
S''
asbasbasbag61
(g77
g63
NtRp870
(dp871
g66
(dp872
sg75
g826
sg68
(lp873
g61
(g82
g63
NtRp874
(dp875
g66
(dp876
g86
g87
ssg75
g870
sg68
(lp877
g317
asbag61
(g82
g63
NtRp878
(dp879
g66
(dp880
g93
g94
ssg75
g870
sg68
(lp881
S':'
asbag61
(g82
g63
NtRp882
(dp883
g66
(dp884
sg75
g870
sg68
(lp885
g61
(g62
g63
NtRp886
(dp887
g66
(dp888
g74
I3
ssg75
g882
sg68
(lp889
S''
asbasbasbag61
(g77
g63
NtRp890
(dp891
g66
(dp892
sg75
g826
sg68
(lp893
g61
(g82
g63
NtRp894
(dp895
g66
(dp896
g86
g87
ssg75
g890
sg68
(lp897
g338
asbag61
(g82
g63
NtRp898
(dp899
g66
(dp900
g93
g94
ssg75
g890
sg68
(lp901
S':'
asbag61
(g82
g63
NtRp902
(dp903
g66
(dp904
sg75
g890
sg68
(lp905
g61
(g62
g63
NtRp906
(dp907
g66
(dp908
g74
I3
ssg75
g902
sg68
(lp909
S''
asbasbasbag61
(g77
g63
NtRp910
(dp911
g66
(dp912
sg75
g826
sg68
(lp913
g61
(g82
g63
NtRp914
(dp915
g66
(dp916
g86
g87
ssg75
g910
sg68
(lp917
g359
asbag61
(g82
g63
NtRp918
(dp919
g66
(dp920
g93
g94
ssg75
g910
sg68
(lp921
S':'
asbag61
(g82
g63
NtRp922
(dp923
g66
(dp924
sg75
g910
sg68
(lp925
g61
(g62
g63
NtRp926
(dp927
g66
(dp928
g74
I3
ssg75
g922
sg68
(lp929
S''
asbasbasbag61
(g77
g63
NtRp930
(dp931
g66
(dp932
sg75
g826
sg68
(lp933
g61
(g82
g63
NtRp934
(dp935
g66
(dp936
g86
g87
ssg75
g930
sg68
(lp937
g380
asbag61
(g82
g63
NtRp938
(dp939
g66
(dp940
g93
g94
ssg75
g930
sg68
(lp941
S':'
asbag61
(g82
g63
NtRp942
(dp943
g66
(dp944
sg75
g930
sg68
(lp945
g61
(g62
g63
NtRp946
(dp947
g66
(dp948
g74
I3
ssg75
g942
sg68
(lp949
S''
asbasbasbag61
(g77
g63
NtRp950
(dp951
g66
(dp952
sg75
g826
sg68
(lp953
g61
(g82
g63
NtRp954
(dp955
g66
(dp956
g86
g87
ssg75
g950
sg68
(lp957
g401
asbag61
(g82
g63
NtRp958
(dp959
g66
(dp960
g93
g94
ssg75
g950
sg68
(lp961
S':'
asbag61
(g82
g63
NtRp962
(dp963
g66
(dp964
sg75
g950
sg68
(lp965
g61
(g62
g63
NtRp966
(dp967
g66
(dp968
g74
I3
ssg75
g962
sg68
(lp969
S''
asbasbasbag61
(g77
g63
NtRp970
(dp971
g66
(dp972
sg75
g826
sg68
(lp973
g61
(g82
g63
NtRp974
(dp975
g66
(dp976
g86
g87
ssg75
g970
sg68
(lp977
g422
asbag61
(g82
g63
NtRp978
(dp979
g66
(dp980
g93
g94
ssg75
g970
sg68
(lp981
S':'
asbag61
(g82
g63
NtRp982
(dp983
g66
(dp984
sg75
g970
sg68
(lp985
g61
(g62
g63
NtRp986
(dp987
g66
(dp988
g74
I3
ssg75
g982
sg68
(lp989
S''
asbasbasbasbasbasbasbag61
(g77
g63
NtRp990
(dp991
g66
(dp992
sg75
g238
sg68
(lp993
g61
(g82
g63
NtRp994
(dp995
g66
(dp996
g86
g87
ssg75
g990
sg68
(lp997
S'session_id_shamebook'
p998
asbag61
(g82
g63
NtRp999
(dp1000
g66
(dp1001
g93
g94
ssg75
g990
sg68
(lp1002
S':'
asbag61
(g82
g63
NtRp1003
(dp1004
g66
(dp1005
sg75
g990
sg68
(lp1006
g61
(g62
g63
NtRp1007
(dp1008
g66
(dp1009
g74
I4
ssg75
g1003
sg68
(lp1010
g61
(g70
g63
NtRp1011
(dp1012
g66
(dp1013
g74
I3
ssg75
Nsg68
(lp1014
g61
(g77
g63
NtRp1015
(dp1016
g66
(dp1017
sg75
g1011
sg68
(lp1018
g61
(g82
g63
NtRp1019
(dp1020
g66
(dp1021
g86
g87
ssg75
g1015
sg68
(lp1022
g275
asbag61
(g82
g63
NtRp1023
(dp1024
g66
(dp1025
g93
g94
ssg75
g1015
sg68
(lp1026
S':'
asbag61
(g82
g63
NtRp1027
(dp1028
g66
(dp1029
sg75
g1015
sg68
(lp1030
g61
(g62
g63
NtRp1031
(dp1032
g66
(dp1033
g74
I3
ssg75
g1027
sg68
(lp1034
S''
asbasbasbag61
(g77
g63
NtRp1035
(dp1036
g66
(dp1037
sg75
g1011
sg68
(lp1038
g61
(g82
g63
NtRp1039
(dp1040
g66
(dp1041
g86
g87
ssg75
g1035
sg68
(lp1042
g296
asbag61
(g82
g63
NtRp1043
(dp1044
g66
(dp1045
g93
g94
ssg75
g1035
sg68
(lp1046
S':'
asbag61
(g82
g63
NtRp1047
(dp1048
g66
(dp1049
sg75
g1035
sg68
(lp1050
g61
(g62
g63
NtRp1051
(dp1052
g66
(dp1053
g74
I3
ssg75
g1047
sg68
(lp1054
S''
asbasbasbag61
(g77
g63
NtRp1055
(dp1056
g66
(dp1057
sg75
g1011
sg68
(lp1058
g61
(g82
g63
NtRp1059
(dp1060
g66
(dp1061
g86
g87
ssg75
g1055
sg68
(lp1062
g317
asbag61
(g82
g63
NtRp1063
(dp1064
g66
(dp1065
g93
g94
ssg75
g1055
sg68
(lp1066
S':'
asbag61
(g82
g63
NtRp1067
(dp1068
g66
(dp1069
sg75
g1055
sg68
(lp1070
g61
(g62
g63
NtRp1071
(dp1072
g66
(dp1073
g74
I3
ssg75
g1067
sg68
(lp1074
S''
asbasbasbag61
(g77
g63
NtRp1075
(dp1076
g66
(dp1077
sg75
g1011
sg68
(lp1078
g61
(g82
g63
NtRp1079
(dp1080
g66
(dp1081
g86
g87
ssg75
g1075
sg68
(lp1082
g338
asbag61
(g82
g63
NtRp1083
(dp1084
g66
(dp1085
g93
g94
ssg75
g1075
sg68
(lp1086
S':'
asbag61
(g82
g63
NtRp1087
(dp1088
g66
(dp1089
sg75
g1075
sg68
(lp1090
g61
(g62
g63
NtRp1091
(dp1092
g66
(dp1093
g74
I3
ssg75
g1087
sg68
(lp1094
S''
asbasbasbag61
(g77
g63
NtRp1095
(dp1096
g66
(dp1097
sg75
g1011
sg68
(lp1098
g61
(g82
g63
NtRp1099
(dp1100
g66
(dp1101
g86
g87
ssg75
g1095
sg68
(lp1102
g359
asbag61
(g82
g63
NtRp1103
(dp1104
g66
(dp1105
g93
g94
ssg75
g1095
sg68
(lp1106
S':'
asbag61
(g82
g63
NtRp1107
(dp1108
g66
(dp1109
sg75
g1095
sg68
(lp1110
g61
(g62
g63
NtRp1111
(dp1112
g66
(dp1113
g74
I3
ssg75
g1107
sg68
(lp1114
S''
asbasbasbag61
(g77
g63
NtRp1115
(dp1116
g66
(dp1117
sg75
g1011
sg68
(lp1118
g61
(g82
g63
NtRp1119
(dp1120
g66
(dp1121
g86
g87
ssg75
g1115
sg68
(lp1122
g380
asbag61
(g82
g63
NtRp1123
(dp1124
g66
(dp1125
g93
g94
ssg75
g1115
sg68
(lp1126
S':'
asbag61
(g82
g63
NtRp1127
(dp1128
g66
(dp1129
sg75
g1115
sg68
(lp1130
g61
(g62
g63
NtRp1131
(dp1132
g66
(dp1133
g74
I3
ssg75
g1127
sg68
(lp1134
S''
asbasbasbag61
(g77
g63
NtRp1135
(dp1136
g66
(dp1137
sg75
g1011
sg68
(lp1138
g61
(g82
g63
NtRp1139
(dp1140
g66
(dp1141
g86
g87
ssg75
g1135
sg68
(lp1142
g401
asbag61
(g82
g63
NtRp1143
(dp1144
g66
(dp1145
g93
g94
ssg75
g1135
sg68
(lp1146
S':'
asbag61
(g82
g63
NtRp1147
(dp1148
g66
(dp1149
sg75
g1135
sg68
(lp1150
g61
(g62
g63
NtRp1151
(dp1152
g66
(dp1153
g74
I3
ssg75
g1147
sg68
(lp1154
S''
asbasbasbag61
(g77
g63
NtRp1155
(dp1156
g66
(dp1157
sg75
g1011
sg68
(lp1158
g61
(g82
g63
NtRp1159
(dp1160
g66
(dp1161
g86
g87
ssg75
g1155
sg68
(lp1162
g422
asbag61
(g82
g63
NtRp1163
(dp1164
g66
(dp1165
g93
g94
ssg75
g1155
sg68
(lp1166
S':'
asbag61
(g82
g63
NtRp1167
(dp1168
g66
(dp1169
sg75
g1155
sg68
(lp1170
g61
(g62
g63
NtRp1171
(dp1172
g66
(dp1173
g74
I3
ssg75
g1167
sg68
(lp1174
S''
asbasbasbasbasbasbasbag61
(g77
g63
NtRp1175
(dp1176
g66
(dp1177
sg75
g238
sg68
(lp1178
g61
(g82
g63
NtRp1179
(dp1180
g66
(dp1181
g86
g87
ssg75
g1175
sg68
(lp1182
S'session_id_welcome'
p1183
asbag61
(g82
g63
NtRp1184
(dp1185
g66
(dp1186
g93
g94
ssg75
g1175
sg68
(lp1187
S':'
asbag61
(g82
g63
NtRp1188
(dp1189
g66
(dp1190
sg75
g1175
sg68
(lp1191
g61
(g62
g63
NtRp1192
(dp1193
g66
(dp1194
g74
I4
ssg75
g1188
sg68
(lp1195
g61
(g70
g63
NtRp1196
(dp1197
g66
(dp1198
g74
I3
ssg75
Nsg68
(lp1199
g61
(g77
g63
NtRp1200
(dp1201
g66
(dp1202
sg75
g1196
sg68
(lp1203
g61
(g82
g63
NtRp1204
(dp1205
g66
(dp1206
g86
g87
ssg75
g1200
sg68
(lp1207
g275
asbag61
(g82
g63
NtRp1208
(dp1209
g66
(dp1210
g93
g94
ssg75
g1200
sg68
(lp1211
S':'
asbag61
(g82
g63
NtRp1212
(dp1213
g66
(dp1214
sg75
g1200
sg68
(lp1215
g61
(g62
g63
NtRp1216
(dp1217
g66
(dp1218
g74
I3
ssg75
g1212
sg68
(lp1219
S''
asbasbasbag61
(g77
g63
NtRp1220
(dp1221
g66
(dp1222
sg75
g1196
sg68
(lp1223
g61
(g82
g63
NtRp1224
(dp1225
g66
(dp1226
g86
g87
ssg75
g1220
sg68
(lp1227
g296
asbag61
(g82
g63
NtRp1228
(dp1229
g66
(dp1230
g93
g94
ssg75
g1220
sg68
(lp1231
S':'
asbag61
(g82
g63
NtRp1232
(dp1233
g66
(dp1234
sg75
g1220
sg68
(lp1235
g61
(g62
g63
NtRp1236
(dp1237
g66
(dp1238
g74
I3
ssg75
g1232
sg68
(lp1239
S''
asbasbasbag61
(g77
g63
NtRp1240
(dp1241
g66
(dp1242
sg75
g1196
sg68
(lp1243
g61
(g82
g63
NtRp1244
(dp1245
g66
(dp1246
g86
g87
ssg75
g1240
sg68
(lp1247
g317
asbag61
(g82
g63
NtRp1248
(dp1249
g66
(dp1250
g93
g94
ssg75
g1240
sg68
(lp1251
S':'
asbag61
(g82
g63
NtRp1252
(dp1253
g66
(dp1254
sg75
g1240
sg68
(lp1255
g61
(g62
g63
NtRp1256
(dp1257
g66
(dp1258
g74
I3
ssg75
g1252
sg68
(lp1259
S''
asbasbasbag61
(g77
g63
NtRp1260
(dp1261
g66
(dp1262
sg75
g1196
sg68
(lp1263
g61
(g82
g63
NtRp1264
(dp1265
g66
(dp1266
g86
g87
ssg75
g1260
sg68
(lp1267
g338
asbag61
(g82
g63
NtRp1268
(dp1269
g66
(dp1270
g93
g94
ssg75
g1260
sg68
(lp1271
S':'
asbag61
(g82
g63
NtRp1272
(dp1273
g66
(dp1274
sg75
g1260
sg68
(lp1275
g61
(g62
g63
NtRp1276
(dp1277
g66
(dp1278
g74
I3
ssg75
g1272
sg68
(lp1279
S''
asbasbasbag61
(g77
g63
NtRp1280
(dp1281
g66
(dp1282
sg75
g1196
sg68
(lp1283
g61
(g82
g63
NtRp1284
(dp1285
g66
(dp1286
g86
g87
ssg75
g1280
sg68
(lp1287
g359
asbag61
(g82
g63
NtRp1288
(dp1289
g66
(dp1290
g93
g94
ssg75
g1280
sg68
(lp1291
S':'
asbag61
(g82
g63
NtRp1292
(dp1293
g66
(dp1294
sg75
g1280
sg68
(lp1295
g61
(g62
g63
NtRp1296
(dp1297
g66
(dp1298
g74
I3
ssg75
g1292
sg68
(lp1299
S''
asbasbasbag61
(g77
g63
NtRp1300
(dp1301
g66
(dp1302
sg75
g1196
sg68
(lp1303
g61
(g82
g63
NtRp1304
(dp1305
g66
(dp1306
g86
g87
ssg75
g1300
sg68
(lp1307
g380
asbag61
(g82
g63
NtRp1308
(dp1309
g66
(dp1310
g93
g94
ssg75
g1300
sg68
(lp1311
S':'
asbag61
(g82
g63
NtRp1312
(dp1313
g66
(dp1314
sg75
g1300
sg68
(lp1315
g61
(g62
g63
NtRp1316
(dp1317
g66
(dp1318
g74
I3
ssg75
g1312
sg68
(lp1319
S''
asbasbasbag61
(g77
g63
NtRp1320
(dp1321
g66
(dp1322
sg75
g1196
sg68
(lp1323
g61
(g82
g63
NtRp1324
(dp1325
g66
(dp1326
g86
g87
ssg75
g1320
sg68
(lp1327
g401
asbag61
(g82
g63
NtRp1328
(dp1329
g66
(dp1330
g93
g94
ssg75
g1320
sg68
(lp1331
S':'
asbag61
(g82
g63
NtRp1332
(dp1333
g66
(dp1334
sg75
g1320
sg68
(lp1335
g61
(g62
g63
NtRp1336
(dp1337
g66
(dp1338
g74
I3
ssg75
g1332
sg68
(lp1339
S''
asbasbasbag61
(g77
g63
NtRp1340
(dp1341
g66
(dp1342
sg75
g1196
sg68
(lp1343
g61
(g82
g63
NtRp1344
(dp1345
g66
(dp1346
g86
g87
ssg75
g1340
sg68
(lp1347
g422
asbag61
(g82
g63
NtRp1348
(dp1349
g66
(dp1350
g93
g94
ssg75
g1340
sg68
(lp1351
S':'
asbag61
(g82
g63
NtRp1352
(dp1353
g66
(dp1354
sg75
g1340
sg68
(lp1355
g61
(g62
g63
NtRp1356
(dp1357
g66
(dp1358
g74
I3
ssg75
g1352
sg68
(lp1359
S''
asbasbasbasbasbasbasbag61
(g77
g63
NtRp1360
(dp1361
g66
(dp1362
sg75
g238
sg68
(lp1363
g61
(g82
g63
NtRp1364
(dp1365
g66
(dp1366
g86
g87
ssg75
g1360
sg68
(lp1367
S'sessionid'
p1368
asbag61
(g82
g63
NtRp1369
(dp1370
g66
(dp1371
g93
g94
ssg75
g1360
sg68
(lp1372
S':'
asbag61
(g82
g63
NtRp1373
(dp1374
g66
(dp1375
sg75
g1360
sg68
(lp1376
g61
(g62
g63
NtRp1377
(dp1378
g66
(dp1379
g74
I4
ssg75
g1373
sg68
(lp1380
g61
(g70
g63
NtRp1381
(dp1382
g66
(dp1383
g74
I3
ssg75
Nsg68
(lp1384
g61
(g77
g63
NtRp1385
(dp1386
g66
(dp1387
sg75
g1381
sg68
(lp1388
g61
(g82
g63
NtRp1389
(dp1390
g66
(dp1391
g86
g87
ssg75
g1385
sg68
(lp1392
g275
asbag61
(g82
g63
NtRp1393
(dp1394
g66
(dp1395
g93
g94
ssg75
g1385
sg68
(lp1396
S':'
asbag61
(g82
g63
NtRp1397
(dp1398
g66
(dp1399
sg75
g1385
sg68
(lp1400
g61
(g62
g63
NtRp1401
(dp1402
g66
(dp1403
g74
I3
ssg75
g1397
sg68
(lp1404
S''
asbasbasbag61
(g77
g63
NtRp1405
(dp1406
g66
(dp1407
sg75
g1381
sg68
(lp1408
g61
(g82
g63
NtRp1409
(dp1410
g66
(dp1411
g86
g87
ssg75
g1405
sg68
(lp1412
g296
asbag61
(g82
g63
NtRp1413
(dp1414
g66
(dp1415
g93
g94
ssg75
g1405
sg68
(lp1416
S':'
asbag61
(g82
g63
NtRp1417
(dp1418
g66
(dp1419
sg75
g1405
sg68
(lp1420
g61
(g62
g63
NtRp1421
(dp1422
g66
(dp1423
g74
I3
ssg75
g1417
sg68
(lp1424
S''
asbasbasbag61
(g77
g63
NtRp1425
(dp1426
g66
(dp1427
sg75
g1381
sg68
(lp1428
g61
(g82
g63
NtRp1429
(dp1430
g66
(dp1431
g86
g87
ssg75
g1425
sg68
(lp1432
g317
asbag61
(g82
g63
NtRp1433
(dp1434
g66
(dp1435
g93
g94
ssg75
g1425
sg68
(lp1436
S':'
asbag61
(g82
g63
NtRp1437
(dp1438
g66
(dp1439
sg75
g1425
sg68
(lp1440
g61
(g62
g63
NtRp1441
(dp1442
g66
(dp1443
g74
I3
ssg75
g1437
sg68
(lp1444
S''
asbasbasbag61
(g77
g63
NtRp1445
(dp1446
g66
(dp1447
sg75
g1381
sg68
(lp1448
g61
(g82
g63
NtRp1449
(dp1450
g66
(dp1451
g86
g87
ssg75
g1445
sg68
(lp1452
g338
asbag61
(g82
g63
NtRp1453
(dp1454
g66
(dp1455
g93
g94
ssg75
g1445
sg68
(lp1456
S':'
asbag61
(g82
g63
NtRp1457
(dp1458
g66
(dp1459
sg75
g1445
sg68
(lp1460
g61
(g62
g63
NtRp1461
(dp1462
g66
(dp1463
g74
I3
ssg75
g1457
sg68
(lp1464
S''
asbasbasbag61
(g77
g63
NtRp1465
(dp1466
g66
(dp1467
sg75
g1381
sg68
(lp1468
g61
(g82
g63
NtRp1469
(dp1470
g66
(dp1471
g86
g87
ssg75
g1465
sg68
(lp1472
g359
asbag61
(g82
g63
NtRp1473
(dp1474
g66
(dp1475
g93
g94
ssg75
g1465
sg68
(lp1476
S':'
asbag61
(g82
g63
NtRp1477
(dp1478
g66
(dp1479
sg75
g1465
sg68
(lp1480
g61
(g62
g63
NtRp1481
(dp1482
g66
(dp1483
g74
I3
ssg75
g1477
sg68
(lp1484
S''
asbasbasbag61
(g77
g63
NtRp1485
(dp1486
g66
(dp1487
sg75
g1381
sg68
(lp1488
g61
(g82
g63
NtRp1489
(dp1490
g66
(dp1491
g86
g87
ssg75
g1485
sg68
(lp1492
g380
asbag61
(g82
g63
NtRp1493
(dp1494
g66
(dp1495
g93
g94
ssg75
g1485
sg68
(lp1496
S':'
asbag61
(g82
g63
NtRp1497
(dp1498
g66
(dp1499
sg75
g1485
sg68
(lp1500
g61
(g62
g63
NtRp1501
(dp1502
g66
(dp1503
g74
I3
ssg75
g1497
sg68
(lp1504
S''
asbasbasbag61
(g77
g63
NtRp1505
(dp1506
g66
(dp1507
sg75
g1381
sg68
(lp1508
g61
(g82
g63
NtRp1509
(dp1510
g66
(dp1511
g86
g87
ssg75
g1505
sg68
(lp1512
g401
asbag61
(g82
g63
NtRp1513
(dp1514
g66
(dp1515
g93
g94
ssg75
g1505
sg68
(lp1516
S':'
asbag61
(g82
g63
NtRp1517
(dp1518
g66
(dp1519
sg75
g1505
sg68
(lp1520
g61
(g62
g63
NtRp1521
(dp1522
g66
(dp1523
g74
I3
ssg75
g1517
sg68
(lp1524
S''
asbasbasbag61
(g77
g63
NtRp1525
(dp1526
g66
(dp1527
sg75
g1381
sg68
(lp1528
g61
(g82
g63
NtRp1529
(dp1530
g66
(dp1531
g86
g87
ssg75
g1525
sg68
(lp1532
g422
asbag61
(g82
g63
NtRp1533
(dp1534
g66
(dp1535
g93
g94
ssg75
g1525
sg68
(lp1536
S':'
asbag61
(g82
g63
NtRp1537
(dp1538
g66
(dp1539
sg75
g1525
sg68
(lp1540
g61
(g62
g63
NtRp1541
(dp1542
g66
(dp1543
g74
I3
ssg75
g1537
sg68
(lp1544
S''
asbasbasbasbasbasbasbasbasbasbasbag61
(g77
g63
NtRp1545
(dp1546
g66
(dp1547
sg75
g71
sg68
(lp1548
g61
(g82
g63
NtRp1549
(dp1550
g66
(dp1551
g86
g87
ssg75
g1545
sg68
(lp1552
S'env'
p1553
asbag61
(g82
g63
NtRp1554
(dp1555
g66
(dp1556
g93
g94
ssg75
g1545
sg68
(lp1557
S':'
asbag61
(g82
g63
NtRp1558
(dp1559
g66
(dp1560
sg75
g1545
sg68
(lp1561
g61
(g62
g63
NtRp1562
(dp1563
g66
(dp1564
g74
I5
ssg75
g1558
sg68
(lp1565
g61
(g70
g63
NtRp1566
(dp1567
g66
(dp1568
g74
I4
ssg75
Nsg68
(lp1569
g61
(g77
g63
NtRp1570
(dp1571
g66
(dp1572
sg75
g1566
sg68
(lp1573
g61
(g82
g63
NtRp1574
(dp1575
g66
(dp1576
g86
g87
ssg75
g1570
sg68
(lp1577
S'app_folders'
p1578
asbag61
(g82
g63
NtRp1579
(dp1580
g66
(dp1581
g93
g94
ssg75
g1570
sg68
(lp1582
S':'
asbag61
(g82
g63
NtRp1583
(dp1584
g66
(dp1585
sg75
g1570
sg68
(lp1586
g61
(g62
g63
NtRp1587
(dp1588
g66
(dp1589
g74
I4
ssg75
g1583
sg68
(lp1590
S"set(['/home/strzel_a/web2py/applications/bench/', '/home/strzel_a/web2py/applications/shamebook/'])"
p1591
asbasbasbag61
(g77
g63
NtRp1592
(dp1593
g66
(dp1594
sg75
g1566
sg68
(lp1595
g61
(g82
g63
NtRp1596
(dp1597
g66
(dp1598
g86
g87
ssg75
g1592
sg68
(lp1599
S'applications_parent'
p1600
asbag61
(g82
g63
NtRp1601
(dp1602
g66
(dp1603
g93
g94
ssg75
g1592
sg68
(lp1604
S':'
asbag61
(g82
g63
NtRp1605
(dp1606
g66
(dp1607
sg75
g1592
sg68
(lp1608
g61
(g62
g63
NtRp1609
(dp1610
g66
(dp1611
g74
I4
ssg75
g1605
sg68
(lp1612
S'/home/strzel_a/web2py'
p1613
asbasbasbag61
(g77
g63
NtRp1614
(dp1615
g66
(dp1616
sg75
g1566
sg68
(lp1617
g61
(g82
g63
NtRp1618
(dp1619
g66
(dp1620
g86
g87
ssg75
g1614
sg68
(lp1621
S'cmd_args'
p1622
asbag61
(g82
g63
NtRp1623
(dp1624
g66
(dp1625
g93
g94
ssg75
g1614
sg68
(lp1626
S':'
asbag61
(g82
g63
NtRp1627
(dp1628
g66
(dp1629
sg75
g1614
sg68
(lp1630
g61
(g62
g63
NtRp1631
(dp1632
g66
(dp1633
g74
I4
ssg75
g1627
sg68
(lp1634
g61
(g70
g63
NtRp1635
(dp1636
g66
(dp1637
g74
I3
ssg75
Nsg68
(lp1638
sbasbasbasbag61
(g77
g63
NtRp1639
(dp1640
g66
(dp1641
sg75
g1566
sg68
(lp1642
g61
(g82
g63
NtRp1643
(dp1644
g66
(dp1645
g86
g87
ssg75
g1639
sg68
(lp1646
S'cmd_options'
p1647
asbag61
(g82
g63
NtRp1648
(dp1649
g66
(dp1650
g93
g94
ssg75
g1639
sg68
(lp1651
S':'
asbag61
(g82
g63
NtRp1652
(dp1653
g66
(dp1654
sg75
g1639
sg68
(lp1655
g61
(g62
g63
NtRp1656
(dp1657
g66
(dp1658
g74
I4
ssg75
g1652
sg68
(lp1659
S"<Values at 0x199d320: {'verbose': False, 'ip': '127.0.0.1', 'shutdown_timeout': 5, 'taskbar': False, 'port': 9001, 'maxthreads': None, 'softcron': False, 'server_name': 'hemca-machine', 'bpython': False, 'nogui': False, 'nocron': False, 'extcron': False, 'debuglevel': 30, 'test': None, 'folder': '/home/strzel_a/web2py', 'config': '', 'import_models': False, 'winservice': '', 'shell': None, 'run': '', 'log_filename': 'httpserver.log', 'args': [''], 'profiler_filename': None, 'ssl_private_key': '', 'password': '123456', 'request_queue_size': 5, 'ssl_certificate': '', 'cronjob': False, 'plain': False, 'quiet': False, 'interfaces': None, 'minthreads': None, 'timeout': 10, 'numthreads': None, 'pid_filename': 'httpserver.pid'}>"
p1660
asbasbasbag61
(g77
g63
NtRp1661
(dp1662
g66
(dp1663
sg75
g1566
sg68
(lp1664
g61
(g82
g63
NtRp1665
(dp1666
g66
(dp1667
g86
g87
ssg75
g1661
sg68
(lp1668
S'db_sessions'
p1669
asbag61
(g82
g63
NtRp1670
(dp1671
g66
(dp1672
g93
g94
ssg75
g1661
sg68
(lp1673
S':'
asbag61
(g82
g63
NtRp1674
(dp1675
g66
(dp1676
sg75
g1661
sg68
(lp1677
g61
(g62
g63
NtRp1678
(dp1679
g66
(dp1680
g74
I4
ssg75
g1674
sg68
(lp1681
S'set([])'
p1682
asbasbasbag61
(g77
g63
NtRp1683
(dp1684
g66
(dp1685
sg75
g1566
sg68
(lp1686
g61
(g82
g63
NtRp1687
(dp1688
g66
(dp1689
g86
g87
ssg75
g1683
sg68
(lp1690
S'debugging'
p1691
asbag61
(g82
g63
NtRp1692
(dp1693
g66
(dp1694
g93
g94
ssg75
g1683
sg68
(lp1695
S':'
asbag61
(g82
g63
NtRp1696
(dp1697
g66
(dp1698
sg75
g1683
sg68
(lp1699
g61
(g62
g63
NtRp1700
(dp1701
g66
(dp1702
g74
I4
ssg75
g1696
sg68
(lp1703
g104
asbasbasbag61
(g77
g63
NtRp1704
(dp1705
g66
(dp1706
sg75
g1566
sg68
(lp1707
g61
(g82
g63
NtRp1708
(dp1709
g66
(dp1710
g86
g87
ssg75
g1704
sg68
(lp1711
S'gluon_parent'
p1712
asbag61
(g82
g63
NtRp1713
(dp1714
g66
(dp1715
g93
g94
ssg75
g1704
sg68
(lp1716
S':'
asbag61
(g82
g63
NtRp1717
(dp1718
g66
(dp1719
sg75
g1704
sg68
(lp1720
g61
(g62
g63
NtRp1721
(dp1722
g66
(dp1723
g74
I4
ssg75
g1717
sg68
(lp1724
S'/home/strzel_a/web2py'
p1725
asbasbasbag61
(g77
g63
NtRp1726
(dp1727
g66
(dp1728
sg75
g1566
sg68
(lp1729
g61
(g82
g63
NtRp1730
(dp1731
g66
(dp1732
g86
g87
ssg75
g1726
sg68
(lp1733
S'http_accept'
p1734
asbag61
(g82
g63
NtRp1735
(dp1736
g66
(dp1737
g93
g94
ssg75
g1726
sg68
(lp1738
S':'
asbag61
(g82
g63
NtRp1739
(dp1740
g66
(dp1741
sg75
g1726
sg68
(lp1742
g61
(g62
g63
NtRp1743
(dp1744
g66
(dp1745
g74
I4
ssg75
g1739
sg68
(lp1746
S'application/xml,application/xhtml+xml,text/html;q=0.9,text/plain;q=0.8,image/png,*/*;q=0.5'
p1747
asbasbasbag61
(g77
g63
NtRp1748
(dp1749
g66
(dp1750
sg75
g1566
sg68
(lp1751
g61
(g82
g63
NtRp1752
(dp1753
g66
(dp1754
g86
g87
ssg75
g1748
sg68
(lp1755
S'http_accept_charset'
p1756
asbag61
(g82
g63
NtRp1757
(dp1758
g66
(dp1759
g93
g94
ssg75
g1748
sg68
(lp1760
S':'
asbag61
(g82
g63
NtRp1761
(dp1762
g66
(dp1763
sg75
g1748
sg68
(lp1764
g61
(g62
g63
NtRp1765
(dp1766
g66
(dp1767
g74
I4
ssg75
g1761
sg68
(lp1768
S'ISO-8859-1,utf-8;q=0.7,*;q=0.3'
p1769
asbasbasbag61
(g77
g63
NtRp1770
(dp1771
g66
(dp1772
sg75
g1566
sg68
(lp1773
g61
(g82
g63
NtRp1774
(dp1775
g66
(dp1776
g86
g87
ssg75
g1770
sg68
(lp1777
S'http_accept_encoding'
p1778
asbag61
(g82
g63
NtRp1779
(dp1780
g66
(dp1781
g93
g94
ssg75
g1770
sg68
(lp1782
S':'
asbag61
(g82
g63
NtRp1783
(dp1784
g66
(dp1785
sg75
g1770
sg68
(lp1786
g61
(g62
g63
NtRp1787
(dp1788
g66
(dp1789
g74
I4
ssg75
g1783
sg68
(lp1790
S'gzip,deflate,sdch'
p1791
asbasbasbag61
(g77
g63
NtRp1792
(dp1793
g66
(dp1794
sg75
g1566
sg68
(lp1795
g61
(g82
g63
NtRp1796
(dp1797
g66
(dp1798
g86
g87
ssg75
g1792
sg68
(lp1799
S'http_accept_language'
p1800
asbag61
(g82
g63
NtRp1801
(dp1802
g66
(dp1803
g93
g94
ssg75
g1792
sg68
(lp1804
S':'
asbag61
(g82
g63
NtRp1805
(dp1806
g66
(dp1807
sg75
g1792
sg68
(lp1808
g61
(g62
g63
NtRp1809
(dp1810
g66
(dp1811
g74
I4
ssg75
g1805
sg68
(lp1812
S'en-US,en;q=0.8,fr;q=0.6'
p1813
asbasbasbag61
(g77
g63
NtRp1814
(dp1815
g66
(dp1816
sg75
g1566
sg68
(lp1817
g61
(g82
g63
NtRp1818
(dp1819
g66
(dp1820
g86
g87
ssg75
g1814
sg68
(lp1821
S'http_cache_control'
p1822
asbag61
(g82
g63
NtRp1823
(dp1824
g66
(dp1825
g93
g94
ssg75
g1814
sg68
(lp1826
S':'
asbag61
(g82
g63
NtRp1827
(dp1828
g66
(dp1829
sg75
g1814
sg68
(lp1830
g61
(g62
g63
NtRp1831
(dp1832
g66
(dp1833
g74
I4
ssg75
g1827
sg68
(lp1834
S'max-age=0'
p1835
asbasbasbag61
(g77
g63
NtRp1836
(dp1837
g66
(dp1838
sg75
g1566
sg68
(lp1839
g61
(g82
g63
NtRp1840
(dp1841
g66
(dp1842
g86
g87
ssg75
g1836
sg68
(lp1843
S'http_connection'
p1844
asbag61
(g82
g63
NtRp1845
(dp1846
g66
(dp1847
g93
g94
ssg75
g1836
sg68
(lp1848
S':'
asbag61
(g82
g63
NtRp1849
(dp1850
g66
(dp1851
sg75
g1836
sg68
(lp1852
g61
(g62
g63
NtRp1853
(dp1854
g66
(dp1855
g74
I4
ssg75
g1849
sg68
(lp1856
S'keep-alive'
p1857
asbasbasbag61
(g77
g63
NtRp1858
(dp1859
g66
(dp1860
sg75
g1566
sg68
(lp1861
g61
(g82
g63
NtRp1862
(dp1863
g66
(dp1864
g86
g87
ssg75
g1858
sg68
(lp1865
S'http_cookie'
p1866
asbag61
(g82
g63
NtRp1867
(dp1868
g66
(dp1869
g93
g94
ssg75
g1858
sg68
(lp1870
S':'
asbag61
(g82
g63
NtRp1871
(dp1872
g66
(dp1873
sg75
g1858
sg68
(lp1874
g61
(g62
g63
NtRp1875
(dp1876
g66
(dp1877
g74
I4
ssg75
g1871
sg68
(lp1878
S'__utma_a2a=1892924862.1332329569.1300772643.1300772643.1300772643.2; lbk=108,109,188,189,189,189,189,188,187,186,115,116,118,118,119,119,117,117,127,114,114,113,113,152,152,152,152,152,152,122,120,120,120,120,120,120,123,125,121,183,154,185,155,156,157,175,176,111,2,3,4,5,9,15,6,86,85,84,197,192,196,195,194,198,200,7,73,71,72; sessionid=e1561d45cf8b97b67a7fe429c35b97c4; csrftoken=5f33e658da1baec203558d64b58e4cdc; session_id_welcome=127.0.0.1-76172e5e-b2b1-4e42-afeb-6514e75083c6; session_id_admin=127.0.0.1-8ea6b216-d86f-4f76-b253-6d25a76fbfe5; session_id_shamebook=127.0.0.1-d070db0e-2530-4753-b4ec-e07951463d05; session_id_bench=127.0.0.1-bd75bc63-5cd9-4975-a78e-056513a6b389'
p1879
asbasbasbag61
(g77
g63
NtRp1880
(dp1881
g66
(dp1882
sg75
g1566
sg68
(lp1883
g61
(g82
g63
NtRp1884
(dp1885
g66
(dp1886
g86
g87
ssg75
g1880
sg68
(lp1887
S'http_host'
p1888
asbag61
(g82
g63
NtRp1889
(dp1890
g66
(dp1891
g93
g94
ssg75
g1880
sg68
(lp1892
S':'
asbag61
(g82
g63
NtRp1893
(dp1894
g66
(dp1895
sg75
g1880
sg68
(lp1896
g61
(g62
g63
NtRp1897
(dp1898
g66
(dp1899
g74
I4
ssg75
g1893
sg68
(lp1900
S'localhost:9001'
p1901
asbasbasbag61
(g77
g63
NtRp1902
(dp1903
g66
(dp1904
sg75
g1566
sg68
(lp1905
g61
(g82
g63
NtRp1906
(dp1907
g66
(dp1908
g86
g87
ssg75
g1902
sg68
(lp1909
S'http_user_agent'
p1910
asbag61
(g82
g63
NtRp1911
(dp1912
g66
(dp1913
g93
g94
ssg75
g1902
sg68
(lp1914
S':'
asbag61
(g82
g63
NtRp1915
(dp1916
g66
(dp1917
sg75
g1902
sg68
(lp1918
g61
(g62
g63
NtRp1919
(dp1920
g66
(dp1921
g74
I4
ssg75
g1915
sg68
(lp1922
S'Mozilla/5.0 (X11; U; Linux x86_64; en-US) AppleWebKit/534.16 (KHTML, like Gecko) Ubuntu/10.10 Chromium/10.0.648.133 Chrome/10.0.648.133 Safari/534.16'
p1923
asbasbasbag61
(g77
g63
NtRp1924
(dp1925
g66
(dp1926
sg75
g1566
sg68
(lp1927
g61
(g82
g63
NtRp1928
(dp1929
g66
(dp1930
g86
g87
ssg75
g1924
sg68
(lp1931
S'path_info'
p1932
asbag61
(g82
g63
NtRp1933
(dp1934
g66
(dp1935
g93
g94
ssg75
g1924
sg68
(lp1936
S':'
asbag61
(g82
g63
NtRp1937
(dp1938
g66
(dp1939
sg75
g1924
sg68
(lp1940
g61
(g62
g63
NtRp1941
(dp1942
g66
(dp1943
g74
I4
ssg75
g1937
sg68
(lp1944
S'/bench'
p1945
asbasbasbag61
(g77
g63
NtRp1946
(dp1947
g66
(dp1948
sg75
g1566
sg68
(lp1949
g61
(g82
g63
NtRp1950
(dp1951
g66
(dp1952
g86
g87
ssg75
g1946
sg68
(lp1953
S'query_string'
p1954
asbag61
(g82
g63
NtRp1955
(dp1956
g66
(dp1957
g93
g94
ssg75
g1946
sg68
(lp1958
S':'
asbag61
(g82
g63
NtRp1959
(dp1960
g66
(dp1961
sg75
g1946
sg68
(lp1962
g61
(g62
g63
NtRp1963
(dp1964
g66
(dp1965
g74
I4
ssg75
g1959
sg68
(lp1966
S''
asbasbasbag61
(g77
g63
NtRp1967
(dp1968
g66
(dp1969
sg75
g1566
sg68
(lp1970
g61
(g82
g63
NtRp1971
(dp1972
g66
(dp1973
g86
g87
ssg75
g1967
sg68
(lp1974
S'remote_addr'
p1975
asbag61
(g82
g63
NtRp1976
(dp1977
g66
(dp1978
g93
g94
ssg75
g1967
sg68
(lp1979
S':'
asbag61
(g82
g63
NtRp1980
(dp1981
g66
(dp1982
sg75
g1967
sg68
(lp1983
g61
(g62
g63
NtRp1984
(dp1985
g66
(dp1986
g74
I4
ssg75
g1980
sg68
(lp1987
g194
asbasbasbag61
(g77
g63
NtRp1988
(dp1989
g66
(dp1990
sg75
g1566
sg68
(lp1991
g61
(g82
g63
NtRp1992
(dp1993
g66
(dp1994
g86
g87
ssg75
g1988
sg68
(lp1995
S'remote_port'
p1996
asbag61
(g82
g63
NtRp1997
(dp1998
g66
(dp1999
g93
g94
ssg75
g1988
sg68
(lp2000
S':'
asbag61
(g82
g63
NtRp2001
(dp2002
g66
(dp2003
sg75
g1988
sg68
(lp2004
g61
(g62
g63
NtRp2005
(dp2006
g66
(dp2007
g74
I4
ssg75
g2001
sg68
(lp2008
S'50708'
p2009
asbasbasbag61
(g77
g63
NtRp2010
(dp2011
g66
(dp2012
sg75
g1566
sg68
(lp2013
g61
(g82
g63
NtRp2014
(dp2015
g66
(dp2016
g86
g87
ssg75
g2010
sg68
(lp2017
S'request_method'
p2018
asbag61
(g82
g63
NtRp2019
(dp2020
g66
(dp2021
g93
g94
ssg75
g2010
sg68
(lp2022
S':'
asbag61
(g82
g63
NtRp2023
(dp2024
g66
(dp2025
sg75
g2010
sg68
(lp2026
g61
(g62
g63
NtRp2027
(dp2028
g66
(dp2029
g74
I4
ssg75
g2023
sg68
(lp2030
S'GET'
p2031
asbasbasbag61
(g77
g63
NtRp2032
(dp2033
g66
(dp2034
sg75
g1566
sg68
(lp2035
g61
(g82
g63
NtRp2036
(dp2037
g66
(dp2038
g86
g87
ssg75
g2032
sg68
(lp2039
S'request_uri'
p2040
asbag61
(g82
g63
NtRp2041
(dp2042
g66
(dp2043
g93
g94
ssg75
g2032
sg68
(lp2044
S':'
asbag61
(g82
g63
NtRp2045
(dp2046
g66
(dp2047
sg75
g2032
sg68
(lp2048
g61
(g62
g63
NtRp2049
(dp2050
g66
(dp2051
g74
I4
ssg75
g2045
sg68
(lp2052
g1945
asbasbasbag61
(g77
g63
NtRp2053
(dp2054
g66
(dp2055
sg75
g1566
sg68
(lp2056
g61
(g82
g63
NtRp2057
(dp2058
g66
(dp2059
g86
g87
ssg75
g2053
sg68
(lp2060
S'script_name'
p2061
asbag61
(g82
g63
NtRp2062
(dp2063
g66
(dp2064
g93
g94
ssg75
g2053
sg68
(lp2065
S':'
asbag61
(g82
g63
NtRp2066
(dp2067
g66
(dp2068
sg75
g2053
sg68
(lp2069
g61
(g62
g63
NtRp2070
(dp2071
g66
(dp2072
g74
I4
ssg75
g2066
sg68
(lp2073
S''
asbasbasbag61
(g77
g63
NtRp2074
(dp2075
g66
(dp2076
sg75
g1566
sg68
(lp2077
g61
(g82
g63
NtRp2078
(dp2079
g66
(dp2080
g86
g87
ssg75
g2074
sg68
(lp2081
S'server_name'
p2082
asbag61
(g82
g63
NtRp2083
(dp2084
g66
(dp2085
g93
g94
ssg75
g2074
sg68
(lp2086
S':'
asbag61
(g82
g63
NtRp2087
(dp2088
g66
(dp2089
sg75
g2074
sg68
(lp2090
g61
(g62
g63
NtRp2091
(dp2092
g66
(dp2093
g74
I4
ssg75
g2087
sg68
(lp2094
S'hemca-machine'
p2095
asbasbasbag61
(g77
g63
NtRp2096
(dp2097
g66
(dp2098
sg75
g1566
sg68
(lp2099
g61
(g82
g63
NtRp2100
(dp2101
g66
(dp2102
g86
g87
ssg75
g2096
sg68
(lp2103
S'server_port'
p2104
asbag61
(g82
g63
NtRp2105
(dp2106
g66
(dp2107
g93
g94
ssg75
g2096
sg68
(lp2108
S':'
asbag61
(g82
g63
NtRp2109
(dp2110
g66
(dp2111
sg75
g2096
sg68
(lp2112
g61
(g62
g63
NtRp2113
(dp2114
g66
(dp2115
g74
I4
ssg75
g2109
sg68
(lp2116
S'9001'
p2117
asbasbasbag61
(g77
g63
NtRp2118
(dp2119
g66
(dp2120
sg75
g1566
sg68
(lp2121
g61
(g82
g63
NtRp2122
(dp2123
g66
(dp2124
g86
g87
ssg75
g2118
sg68
(lp2125
S'server_protocol'
p2126
asbag61
(g82
g63
NtRp2127
(dp2128
g66
(dp2129
g93
g94
ssg75
g2118
sg68
(lp2130
S':'
asbag61
(g82
g63
NtRp2131
(dp2132
g66
(dp2133
sg75
g2118
sg68
(lp2134
g61
(g62
g63
NtRp2135
(dp2136
g66
(dp2137
g74
I4
ssg75
g2131
sg68
(lp2138
S'HTTP/1.1'
p2139
asbasbasbag61
(g77
g63
NtRp2140
(dp2141
g66
(dp2142
sg75
g1566
sg68
(lp2143
g61
(g82
g63
NtRp2144
(dp2145
g66
(dp2146
g86
g87
ssg75
g2140
sg68
(lp2147
S'server_software'
p2148
asbag61
(g82
g63
NtRp2149
(dp2150
g66
(dp2151
g93
g94
ssg75
g2140
sg68
(lp2152
S':'
asbag61
(g82
g63
NtRp2153
(dp2154
g66
(dp2155
sg75
g2140
sg68
(lp2156
g61
(g62
g63
NtRp2157
(dp2158
g66
(dp2159
g74
I4
ssg75
g2153
sg68
(lp2160
S'Rocket 1.2.2'
p2161
asbasbasbag61
(g77
g63
NtRp2162
(dp2163
g66
(dp2164
sg75
g1566
sg68
(lp2165
g61
(g82
g63
NtRp2166
(dp2167
g66
(dp2168
g86
g87
ssg75
g2162
sg68
(lp2169
S'web2py_crontype'
p2170
asbag61
(g82
g63
NtRp2171
(dp2172
g66
(dp2173
g93
g94
ssg75
g2162
sg68
(lp2174
S':'
asbag61
(g82
g63
NtRp2175
(dp2176
g66
(dp2177
sg75
g2162
sg68
(lp2178
g61
(g62
g63
NtRp2179
(dp2180
g66
(dp2181
g74
I4
ssg75
g2175
sg68
(lp2182
S'hard'
p2183
asbasbasbag61
(g77
g63
NtRp2184
(dp2185
g66
(dp2186
sg75
g1566
sg68
(lp2187
g61
(g82
g63
NtRp2188
(dp2189
g66
(dp2190
g86
g87
ssg75
g2184
sg68
(lp2191
S'web2py_original_uri'
p2192
asbag61
(g82
g63
NtRp2193
(dp2194
g66
(dp2195
g93
g94
ssg75
g2184
sg68
(lp2196
S':'
asbag61
(g82
g63
NtRp2197
(dp2198
g66
(dp2199
sg75
g2184
sg68
(lp2200
g61
(g62
g63
NtRp2201
(dp2202
g66
(dp2203
g74
I4
ssg75
g2197
sg68
(lp2204
g1945
asbasbasbag61
(g77
g63
NtRp2205
(dp2206
g66
(dp2207
sg75
g1566
sg68
(lp2208
g61
(g82
g63
NtRp2209
(dp2210
g66
(dp2211
g86
g87
ssg75
g2205
sg68
(lp2212
S'web2py_path'
p2213
asbag61
(g82
g63
NtRp2214
(dp2215
g66
(dp2216
g93
g94
ssg75
g2205
sg68
(lp2217
S':'
asbag61
(g82
g63
NtRp2218
(dp2219
g66
(dp2220
sg75
g2205
sg68
(lp2221
g61
(g62
g63
NtRp2222
(dp2223
g66
(dp2224
g74
I4
ssg75
g2218
sg68
(lp2225
g1613
asbasbasbag61
(g77
g63
NtRp2226
(dp2227
g66
(dp2228
sg75
g1566
sg68
(lp2229
g61
(g82
g63
NtRp2230
(dp2231
g66
(dp2232
g86
g87
ssg75
g2226
sg68
(lp2233
S'web2py_version'
p2234
asbag61
(g82
g63
NtRp2235
(dp2236
g66
(dp2237
g93
g94
ssg75
g2226
sg68
(lp2238
S':'
asbag61
(g82
g63
NtRp2239
(dp2240
g66
(dp2241
sg75
g2226
sg68
(lp2242
g61
(g62
g63
NtRp2243
(dp2244
g66
(dp2245
g74
I4
ssg75
g2239
sg68
(lp2246
S'Version 1.95.1 (2011-04-25 15:04:14)\n'
p2247
asbasbasbag61
(g77
g63
NtRp2248
(dp2249
g66
(dp2250
sg75
g1566
sg68
(lp2251
g61
(g82
g63
NtRp2252
(dp2253
g66
(dp2254
g86
g87
ssg75
g2248
sg68
(lp2255
S'wsgi_errors'
p2256
asbag61
(g82
g63
NtRp2257
(dp2258
g66
(dp2259
g93
g94
ssg75
g2248
sg68
(lp2260
S':'
asbag61
(g82
g63
NtRp2261
(dp2262
g66
(dp2263
sg75
g2248
sg68
(lp2264
g61
(g62
g63
NtRp2265
(dp2266
g66
(dp2267
g74
I4
ssg75
g2261
sg68
(lp2268
S"<open file '<stderr>', mode 'w' at 0x7fd0cdd5d1e0>"
p2269
asbasbasbag61
(g77
g63
NtRp2270
(dp2271
g66
(dp2272
sg75
g1566
sg68
(lp2273
g61
(g82
g63
NtRp2274
(dp2275
g66
(dp2276
g86
g87
ssg75
g2270
sg68
(lp2277
S'wsgi_file_wrapper'
p2278
asbag61
(g82
g63
NtRp2279
(dp2280
g66
(dp2281
g93
g94
ssg75
g2270
sg68
(lp2282
S':'
asbag61
(g82
g63
NtRp2283
(dp2284
g66
(dp2285
sg75
g2270
sg68
(lp2286
g61
(g62
g63
NtRp2287
(dp2288
g66
(dp2289
g74
I4
ssg75
g2283
sg68
(lp2290
S'<class gluon.rocket.FileWrapper at 0x187cad0>'
p2291
asbasbasbag61
(g77
g63
NtRp2292
(dp2293
g66
(dp2294
sg75
g1566
sg68
(lp2295
g61
(g82
g63
NtRp2296
(dp2297
g66
(dp2298
g86
g87
ssg75
g2292
sg68
(lp2299
S'wsgi_input'
p2300
asbag61
(g82
g63
NtRp2301
(dp2302
g66
(dp2303
g93
g94
ssg75
g2292
sg68
(lp2304
S':'
asbag61
(g82
g63
NtRp2305
(dp2306
g66
(dp2307
sg75
g2292
sg68
(lp2308
g61
(g62
g63
NtRp2309
(dp2310
g66
(dp2311
g74
I4
ssg75
g2305
sg68
(lp2312
S'<socket._fileobject object at 0x27d7050>'
p2313
asbasbasbag61
(g77
g63
NtRp2314
(dp2315
g66
(dp2316
sg75
g1566
sg68
(lp2317
g61
(g82
g63
NtRp2318
(dp2319
g66
(dp2320
g86
g87
ssg75
g2314
sg68
(lp2321
S'wsgi_multiprocess'
p2322
asbag61
(g82
g63
NtRp2323
(dp2324
g66
(dp2325
g93
g94
ssg75
g2314
sg68
(lp2326
S':'
asbag61
(g82
g63
NtRp2327
(dp2328
g66
(dp2329
sg75
g2314
sg68
(lp2330
g61
(g62
g63
NtRp2331
(dp2332
g66
(dp2333
g74
I4
ssg75
g2327
sg68
(lp2334
g104
asbasbasbag61
(g77
g63
NtRp2335
(dp2336
g66
(dp2337
sg75
g1566
sg68
(lp2338
g61
(g82
g63
NtRp2339
(dp2340
g66
(dp2341
g86
g87
ssg75
g2335
sg68
(lp2342
S'wsgi_multithread'
p2343
asbag61
(g82
g63
NtRp2344
(dp2345
g66
(dp2346
g93
g94
ssg75
g2335
sg68
(lp2347
S':'
asbag61
(g82
g63
NtRp2348
(dp2349
g66
(dp2350
sg75
g2335
sg68
(lp2351
g61
(g62
g63
NtRp2352
(dp2353
g66
(dp2354
g74
I4
ssg75
g2348
sg68
(lp2355
S'True'
p2356
asbasbasbag61
(g77
g63
NtRp2357
(dp2358
g66
(dp2359
sg75
g1566
sg68
(lp2360
g61
(g82
g63
NtRp2361
(dp2362
g66
(dp2363
g86
g87
ssg75
g2357
sg68
(lp2364
S'wsgi_run_once'
p2365
asbag61
(g82
g63
NtRp2366
(dp2367
g66
(dp2368
g93
g94
ssg75
g2357
sg68
(lp2369
S':'
asbag61
(g82
g63
NtRp2370
(dp2371
g66
(dp2372
sg75
g2357
sg68
(lp2373
g61
(g62
g63
NtRp2374
(dp2375
g66
(dp2376
g74
I4
ssg75
g2370
sg68
(lp2377
g104
asbasbasbag61
(g77
g63
NtRp2378
(dp2379
g66
(dp2380
sg75
g1566
sg68
(lp2381
g61
(g82
g63
NtRp2382
(dp2383
g66
(dp2384
g86
g87
ssg75
g2378
sg68
(lp2385
S'wsgi_url_scheme'
p2386
asbag61
(g82
g63
NtRp2387
(dp2388
g66
(dp2389
g93
g94
ssg75
g2378
sg68
(lp2390
S':'
asbag61
(g82
g63
NtRp2391
(dp2392
g66
(dp2393
sg75
g2378
sg68
(lp2394
g61
(g62
g63
NtRp2395
(dp2396
g66
(dp2397
g74
I4
ssg75
g2391
sg68
(lp2398
S'http'
p2399
asbasbasbag61
(g77
g63
NtRp2400
(dp2401
g66
(dp2402
sg75
g1566
sg68
(lp2403
g61
(g82
g63
NtRp2404
(dp2405
g66
(dp2406
g86
g87
ssg75
g2400
sg68
(lp2407
S'wsgi_version'
p2408
asbag61
(g82
g63
NtRp2409
(dp2410
g66
(dp2411
g93
g94
ssg75
g2400
sg68
(lp2412
S':'
asbag61
(g82
g63
NtRp2413
(dp2414
g66
(dp2415
sg75
g2400
sg68
(lp2416
g61
(g62
g63
NtRp2417
(dp2418
g66
(dp2419
g74
I4
ssg75
g2413
sg68
(lp2420
g61
(g70
g63
NtRp2421
(dp2422
g66
(dp2423
g74
I3
ssg75
Nsg68
(lp2424
g61
(g77
g63
NtRp2425
(dp2426
g66
(dp2427
sg75
g2421
sg68
(lp2428
g61
(g82
g63
NtRp2429
(dp2430
g66
(dp2431
sg75
g2425
sg68
(lp2432
g61
(g62
g63
NtRp2433
(dp2434
g66
(dp2435
g74
I3
ssg75
g2429
sg68
(lp2436
S'1'
asbasbasbag61
(g77
g63
NtRp2437
(dp2438
g66
(dp2439
sg75
g2421
sg68
(lp2440
g61
(g82
g63
NtRp2441
(dp2442
g66
(dp2443
sg75
g2437
sg68
(lp2444
g61
(g62
g63
NtRp2445
(dp2446
g66
(dp2447
g74
I3
ssg75
g2441
sg68
(lp2448
S'0'
asbasbasbasbasbasbasbasbasbasbasbag61
(g77
g63
NtRp2449
(dp2450
g66
(dp2451
sg75
g71
sg68
(lp2452
g61
(g82
g63
NtRp2453
(dp2454
g66
(dp2455
g86
g87
ssg75
g2449
sg68
(lp2456
S'extension'
p2457
asbag61
(g82
g63
NtRp2458
(dp2459
g66
(dp2460
g93
g94
ssg75
g2449
sg68
(lp2461
S':'
asbag61
(g82
g63
NtRp2462
(dp2463
g66
(dp2464
sg75
g2449
sg68
(lp2465
g61
(g62
g63
NtRp2466
(dp2467
g66
(dp2468
g74
I5
ssg75
g2462
sg68
(lp2469
S'html'
p2470
asbasbasbag61
(g77
g63
NtRp2471
(dp2472
g66
(dp2473
sg75
g71
sg68
(lp2474
g61
(g82
g63
NtRp2475
(dp2476
g66
(dp2477
g86
g87
ssg75
g2471
sg68
(lp2478
S'folder'
p2479
asbag61
(g82
g63
NtRp2480
(dp2481
g66
(dp2482
g93
g94
ssg75
g2471
sg68
(lp2483
S':'
asbag61
(g82
g63
NtRp2484
(dp2485
g66
(dp2486
sg75
g2471
sg68
(lp2487
g61
(g62
g63
NtRp2488
(dp2489
g66
(dp2490
g74
I5
ssg75
g2484
sg68
(lp2491
S'/home/strzel_a/web2py/applications/bench/'
p2492
asbasbasbag61
(g77
g63
NtRp2493
(dp2494
g66
(dp2495
sg75
g71
sg68
(lp2496
g61
(g82
g63
NtRp2497
(dp2498
g66
(dp2499
g86
g87
ssg75
g2493
sg68
(lp2500
S'function'
p2501
asbag61
(g82
g63
NtRp2502
(dp2503
g66
(dp2504
g93
g94
ssg75
g2493
sg68
(lp2505
S':'
asbag61
(g82
g63
NtRp2506
(dp2507
g66
(dp2508
sg75
g2493
sg68
(lp2509
g61
(g62
g63
NtRp2510
(dp2511
g66
(dp2512
g74
I5
ssg75
g2506
sg68
(lp2513
S'index'
p2514
asbasbasbag61
(g77
g63
NtRp2515
(dp2516
g66
(dp2517
sg75
g71
sg68
(lp2518
g61
(g82
g63
NtRp2519
(dp2520
g66
(dp2521
g86
g87
ssg75
g2515
sg68
(lp2522
S'get_vars'
p2523
asbag61
(g82
g63
NtRp2524
(dp2525
g66
(dp2526
g93
g94
ssg75
g2515
sg68
(lp2527
S':'
asbag61
(g82
g63
NtRp2528
(dp2529
g66
(dp2530
sg75
g2515
sg68
(lp2531
g61
(g62
g63
NtRp2532
(dp2533
g66
(dp2534
g74
I5
ssg75
g2528
sg68
(lp2535
g61
(g70
g63
NtRp2536
(dp2537
g66
(dp2538
g74
I4
ssg75
Nsg68
(lp2539
sbasbasbasbag61
(g77
g63
NtRp2540
(dp2541
g66
(dp2542
sg75
g71
sg68
(lp2543
g61
(g82
g63
NtRp2544
(dp2545
g66
(dp2546
g86
g87
ssg75
g2540
sg68
(lp2547
S'is_restful'
p2548
asbag61
(g82
g63
NtRp2549
(dp2550
g66
(dp2551
g93
g94
ssg75
g2540
sg68
(lp2552
S':'
asbag61
(g82
g63
NtRp2553
(dp2554
g66
(dp2555
sg75
g2540
sg68
(lp2556
g61
(g62
g63
NtRp2557
(dp2558
g66
(dp2559
g74
I5
ssg75
g2553
sg68
(lp2560
g104
asbasbasbag61
(g77
g63
NtRp2561
(dp2562
g66
(dp2563
sg75
g71
sg68
(lp2564
g61
(g82
g63
NtRp2565
(dp2566
g66
(dp2567
g86
g87
ssg75
g2561
sg68
(lp2568
S'now'
p2569
asbag61
(g82
g63
NtRp2570
(dp2571
g66
(dp2572
g93
g94
ssg75
g2561
sg68
(lp2573
S':'
asbag61
(g82
g63
NtRp2574
(dp2575
g66
(dp2576
sg75
g2561
sg68
(lp2577
g61
(g62
g63
NtRp2578
(dp2579
g66
(dp2580
g74
I5
ssg75
g2574
sg68
(lp2581
S'datetime.datetime(2011, 4, 28, 23, 10, 10, 251681)'
p2582
asbasbasbag61
(g77
g63
NtRp2583
(dp2584
g66
(dp2585
sg75
g71
sg68
(lp2586
g61
(g82
g63
NtRp2587
(dp2588
g66
(dp2589
g86
g87
ssg75
g2583
sg68
(lp2590
S'post_vars'
p2591
asbag61
(g82
g63
NtRp2592
(dp2593
g66
(dp2594
g93
g94
ssg75
g2583
sg68
(lp2595
S':'
asbag61
(g82
g63
NtRp2596
(dp2597
g66
(dp2598
sg75
g2583
sg68
(lp2599
g61
(g62
g63
NtRp2600
(dp2601
g66
(dp2602
g74
I5
ssg75
g2596
sg68
(lp2603
g61
(g70
g63
NtRp2604
(dp2605
g66
(dp2606
g74
I4
ssg75
Nsg68
(lp2607
sbasbasbasbag61
(g77
g63
NtRp2608
(dp2609
g66
(dp2610
sg75
g71
sg68
(lp2611
g61
(g82
g63
NtRp2612
(dp2613
g66
(dp2614
g86
g87
ssg75
g2608
sg68
(lp2615
S'url'
p2616
asbag61
(g82
g63
NtRp2617
(dp2618
g66
(dp2619
g93
g94
ssg75
g2608
sg68
(lp2620
S':'
asbag61
(g82
g63
NtRp2621
(dp2622
g66
(dp2623
sg75
g2608
sg68
(lp2624
g61
(g62
g63
NtRp2625
(dp2626
g66
(dp2627
g74
I5
ssg75
g2621
sg68
(lp2628
S'/bench/default/index'
p2629
asbasbasbag61
(g77
g63
NtRp2630
(dp2631
g66
(dp2632
sg75
g71
sg68
(lp2633
g61
(g82
g63
NtRp2634
(dp2635
g66
(dp2636
g86
g87
ssg75
g2630
sg68
(lp2637
S'uuid'
p2638
asbag61
(g82
g63
NtRp2639
(dp2640
g66
(dp2641
g93
g94
ssg75
g2630
sg68
(lp2642
S':'
asbag61
(g82
g63
NtRp2643
(dp2644
g66
(dp2645
sg75
g2630
sg68
(lp2646
g61
(g62
g63
NtRp2647
(dp2648
g66
(dp2649
g74
I5
ssg75
g2643
sg68
(lp2650
S'bench/127.0.0.1.2011-04-28.23-10-10.3d1ffe4b-8c31-425a-8167-a530fc86b61a'
p2651
asbasbasbag61
(g77
g63
NtRp2652
(dp2653
g66
(dp2654
sg75
g71
sg68
(lp2655
g61
(g82
g63
NtRp2656
(dp2657
g66
(dp2658
g86
g87
ssg75
g2652
sg68
(lp2659
S'vars'
p2660
asbag61
(g82
g63
NtRp2661
(dp2662
g66
(dp2663
g93
g94
ssg75
g2652
sg68
(lp2664
S':'
asbag61
(g82
g63
NtRp2665
(dp2666
g66
(dp2667
sg75
g2652
sg68
(lp2668
g61
(g62
g63
NtRp2669
(dp2670
g66
(dp2671
g74
I5
ssg75
g2665
sg68
(lp2672
g61
(g70
g63
NtRp2673
(dp2674
g66
(dp2675
g74
I4
ssg75
Nsg68
(lp2676
sbasbasbasbag61
(g77
g63
NtRp2677
(dp2678
g66
(dp2679
sg75
g71
sg68
(lp2680
g61
(g82
g63
NtRp2681
(dp2682
g66
(dp2683
g86
g87
ssg75
g2677
sg68
(lp2684
S'wsgi'
p2685
asbag61
(g82
g63
NtRp2686
(dp2687
g66
(dp2688
g93
g94
ssg75
g2677
sg68
(lp2689
S':'
asbag61
(g82
g63
NtRp2690
(dp2691
g66
(dp2692
sg75
g2677
sg68
(lp2693
g61
(g62
g63
NtRp2694
(dp2695
g66
(dp2696
g74
I5
ssg75
g2690
sg68
(lp2697
g61
(g70
g63
NtRp2698
(dp2699
g66
(dp2700
g74
I4
ssg75
Nsg68
(lp2701
g61
(g77
g63
NtRp2702
(dp2703
g66
(dp2704
sg75
g2698
sg68
(lp2705
g61
(g82
g63
NtRp2706
(dp2707
g66
(dp2708
g86
g87
ssg75
g2702
sg68
(lp2709
S'environ'
p2710
asbag61
(g82
g63
NtRp2711
(dp2712
g66
(dp2713
g93
g94
ssg75
g2702
sg68
(lp2714
S':'
asbag61
(g82
g63
NtRp2715
(dp2716
g66
(dp2717
sg75
g2702
sg68
(lp2718
g61
(g62
g63
NtRp2719
(dp2720
g66
(dp2721
g74
I4
ssg75
g2715
sg68
(lp2722
g61
(g70
g63
NtRp2723
(dp2724
g66
(dp2725
g74
I3
ssg75
Nsg68
(lp2726
g61
(g77
g63
NtRp2727
(dp2728
g66
(dp2729
sg75
g2723
sg68
(lp2730
g61
(g82
g63
NtRp2731
(dp2732
g66
(dp2733
g86
g87
ssg75
g2727
sg68
(lp2734
S'HTTP_ACCEPT'
p2735
asbag61
(g82
g63
NtRp2736
(dp2737
g66
(dp2738
g93
g94
ssg75
g2727
sg68
(lp2739
S':'
asbag61
(g82
g63
NtRp2740
(dp2741
g66
(dp2742
sg75
g2727
sg68
(lp2743
g61
(g62
g63
NtRp2744
(dp2745
g66
(dp2746
g74
I3
ssg75
g2740
sg68
(lp2747
g1747
asbasbasbag61
(g77
g63
NtRp2748
(dp2749
g66
(dp2750
sg75
g2723
sg68
(lp2751
g61
(g82
g63
NtRp2752
(dp2753
g66
(dp2754
g86
g87
ssg75
g2748
sg68
(lp2755
S'HTTP_ACCEPT_CHARSET'
p2756
asbag61
(g82
g63
NtRp2757
(dp2758
g66
(dp2759
g93
g94
ssg75
g2748
sg68
(lp2760
S':'
asbag61
(g82
g63
NtRp2761
(dp2762
g66
(dp2763
sg75
g2748
sg68
(lp2764
g61
(g62
g63
NtRp2765
(dp2766
g66
(dp2767
g74
I3
ssg75
g2761
sg68
(lp2768
g1769
asbasbasbag61
(g77
g63
NtRp2769
(dp2770
g66
(dp2771
sg75
g2723
sg68
(lp2772
g61
(g82
g63
NtRp2773
(dp2774
g66
(dp2775
g86
g87
ssg75
g2769
sg68
(lp2776
S'HTTP_ACCEPT_ENCODING'
p2777
asbag61
(g82
g63
NtRp2778
(dp2779
g66
(dp2780
g93
g94
ssg75
g2769
sg68
(lp2781
S':'
asbag61
(g82
g63
NtRp2782
(dp2783
g66
(dp2784
sg75
g2769
sg68
(lp2785
g61
(g62
g63
NtRp2786
(dp2787
g66
(dp2788
g74
I3
ssg75
g2782
sg68
(lp2789
g1791
asbasbasbag61
(g77
g63
NtRp2790
(dp2791
g66
(dp2792
sg75
g2723
sg68
(lp2793
g61
(g82
g63
NtRp2794
(dp2795
g66
(dp2796
g86
g87
ssg75
g2790
sg68
(lp2797
S'HTTP_ACCEPT_LANGUAGE'
p2798
asbag61
(g82
g63
NtRp2799
(dp2800
g66
(dp2801
g93
g94
ssg75
g2790
sg68
(lp2802
S':'
asbag61
(g82
g63
NtRp2803
(dp2804
g66
(dp2805
sg75
g2790
sg68
(lp2806
g61
(g62
g63
NtRp2807
(dp2808
g66
(dp2809
g74
I3
ssg75
g2803
sg68
(lp2810
g1813
asbasbasbag61
(g77
g63
NtRp2811
(dp2812
g66
(dp2813
sg75
g2723
sg68
(lp2814
g61
(g82
g63
NtRp2815
(dp2816
g66
(dp2817
g86
g87
ssg75
g2811
sg68
(lp2818
S'HTTP_CACHE_CONTROL'
p2819
asbag61
(g82
g63
NtRp2820
(dp2821
g66
(dp2822
g93
g94
ssg75
g2811
sg68
(lp2823
S':'
asbag61
(g82
g63
NtRp2824
(dp2825
g66
(dp2826
sg75
g2811
sg68
(lp2827
g61
(g62
g63
NtRp2828
(dp2829
g66
(dp2830
g74
I3
ssg75
g2824
sg68
(lp2831
g1835
asbasbasbag61
(g77
g63
NtRp2832
(dp2833
g66
(dp2834
sg75
g2723
sg68
(lp2835
g61
(g82
g63
NtRp2836
(dp2837
g66
(dp2838
g86
g87
ssg75
g2832
sg68
(lp2839
S'HTTP_CONNECTION'
p2840
asbag61
(g82
g63
NtRp2841
(dp2842
g66
(dp2843
g93
g94
ssg75
g2832
sg68
(lp2844
S':'
asbag61
(g82
g63
NtRp2845
(dp2846
g66
(dp2847
sg75
g2832
sg68
(lp2848
g61
(g62
g63
NtRp2849
(dp2850
g66
(dp2851
g74
I3
ssg75
g2845
sg68
(lp2852
g1857
asbasbasbag61
(g77
g63
NtRp2853
(dp2854
g66
(dp2855
sg75
g2723
sg68
(lp2856
g61
(g82
g63
NtRp2857
(dp2858
g66
(dp2859
g86
g87
ssg75
g2853
sg68
(lp2860
S'HTTP_COOKIE'
p2861
asbag61
(g82
g63
NtRp2862
(dp2863
g66
(dp2864
g93
g94
ssg75
g2853
sg68
(lp2865
S':'
asbag61
(g82
g63
NtRp2866
(dp2867
g66
(dp2868
sg75
g2853
sg68
(lp2869
g61
(g62
g63
NtRp2870
(dp2871
g66
(dp2872
g74
I3
ssg75
g2866
sg68
(lp2873
g1879
asbasbasbag61
(g77
g63
NtRp2874
(dp2875
g66
(dp2876
sg75
g2723
sg68
(lp2877
g61
(g82
g63
NtRp2878
(dp2879
g66
(dp2880
g86
g87
ssg75
g2874
sg68
(lp2881
S'HTTP_HOST'
p2882
asbag61
(g82
g63
NtRp2883
(dp2884
g66
(dp2885
g93
g94
ssg75
g2874
sg68
(lp2886
S':'
asbag61
(g82
g63
NtRp2887
(dp2888
g66
(dp2889
sg75
g2874
sg68
(lp2890
g61
(g62
g63
NtRp2891
(dp2892
g66
(dp2893
g74
I3
ssg75
g2887
sg68
(lp2894
g1901
asbasbasbag61
(g77
g63
NtRp2895
(dp2896
g66
(dp2897
sg75
g2723
sg68
(lp2898
g61
(g82
g63
NtRp2899
(dp2900
g66
(dp2901
g86
g87
ssg75
g2895
sg68
(lp2902
S'HTTP_USER_AGENT'
p2903
asbag61
(g82
g63
NtRp2904
(dp2905
g66
(dp2906
g93
g94
ssg75
g2895
sg68
(lp2907
S':'
asbag61
(g82
g63
NtRp2908
(dp2909
g66
(dp2910
sg75
g2895
sg68
(lp2911
g61
(g62
g63
NtRp2912
(dp2913
g66
(dp2914
g74
I3
ssg75
g2908
sg68
(lp2915
g1923
asbasbasbag61
(g77
g63
NtRp2916
(dp2917
g66
(dp2918
sg75
g2723
sg68
(lp2919
g61
(g82
g63
NtRp2920
(dp2921
g66
(dp2922
g86
g87
ssg75
g2916
sg68
(lp2923
S'PATH_INFO'
p2924
asbag61
(g82
g63
NtRp2925
(dp2926
g66
(dp2927
g93
g94
ssg75
g2916
sg68
(lp2928
S':'
asbag61
(g82
g63
NtRp2929
(dp2930
g66
(dp2931
sg75
g2916
sg68
(lp2932
g61
(g62
g63
NtRp2933
(dp2934
g66
(dp2935
g74
I3
ssg75
g2929
sg68
(lp2936
g1945
asbasbasbag61
(g77
g63
NtRp2937
(dp2938
g66
(dp2939
sg75
g2723
sg68
(lp2940
g61
(g82
g63
NtRp2941
(dp2942
g66
(dp2943
g86
g87
ssg75
g2937
sg68
(lp2944
S'QUERY_STRING'
p2945
asbag61
(g82
g63
NtRp2946
(dp2947
g66
(dp2948
g93
g94
ssg75
g2937
sg68
(lp2949
S':'
asbag61
(g82
g63
NtRp2950
(dp2951
g66
(dp2952
sg75
g2937
sg68
(lp2953
g61
(g62
g63
NtRp2954
(dp2955
g66
(dp2956
g74
I3
ssg75
g2950
sg68
(lp2957
S''
asbasbasbag61
(g77
g63
NtRp2958
(dp2959
g66
(dp2960
sg75
g2723
sg68
(lp2961
g61
(g82
g63
NtRp2962
(dp2963
g66
(dp2964
g86
g87
ssg75
g2958
sg68
(lp2965
S'REMOTE_ADDR'
p2966
asbag61
(g82
g63
NtRp2967
(dp2968
g66
(dp2969
g93
g94
ssg75
g2958
sg68
(lp2970
S':'
asbag61
(g82
g63
NtRp2971
(dp2972
g66
(dp2973
sg75
g2958
sg68
(lp2974
g61
(g62
g63
NtRp2975
(dp2976
g66
(dp2977
g74
I3
ssg75
g2971
sg68
(lp2978
g194
asbasbasbag61
(g77
g63
NtRp2979
(dp2980
g66
(dp2981
sg75
g2723
sg68
(lp2982
g61
(g82
g63
NtRp2983
(dp2984
g66
(dp2985
g86
g87
ssg75
g2979
sg68
(lp2986
S'REMOTE_PORT'
p2987
asbag61
(g82
g63
NtRp2988
(dp2989
g66
(dp2990
g93
g94
ssg75
g2979
sg68
(lp2991
S':'
asbag61
(g82
g63
NtRp2992
(dp2993
g66
(dp2994
sg75
g2979
sg68
(lp2995
g61
(g62
g63
NtRp2996
(dp2997
g66
(dp2998
g74
I3
ssg75
g2992
sg68
(lp2999
g2009
asbasbasbag61
(g77
g63
NtRp3000
(dp3001
g66
(dp3002
sg75
g2723
sg68
(lp3003
g61
(g82
g63
NtRp3004
(dp3005
g66
(dp3006
g86
g87
ssg75
g3000
sg68
(lp3007
S'REQUEST_METHOD'
p3008
asbag61
(g82
g63
NtRp3009
(dp3010
g66
(dp3011
g93
g94
ssg75
g3000
sg68
(lp3012
S':'
asbag61
(g82
g63
NtRp3013
(dp3014
g66
(dp3015
sg75
g3000
sg68
(lp3016
g61
(g62
g63
NtRp3017
(dp3018
g66
(dp3019
g74
I3
ssg75
g3013
sg68
(lp3020
g2031
asbasbasbag61
(g77
g63
NtRp3021
(dp3022
g66
(dp3023
sg75
g2723
sg68
(lp3024
g61
(g82
g63
NtRp3025
(dp3026
g66
(dp3027
g86
g87
ssg75
g3021
sg68
(lp3028
S'REQUEST_URI'
p3029
asbag61
(g82
g63
NtRp3030
(dp3031
g66
(dp3032
g93
g94
ssg75
g3021
sg68
(lp3033
S':'
asbag61
(g82
g63
NtRp3034
(dp3035
g66
(dp3036
sg75
g3021
sg68
(lp3037
g61
(g62
g63
NtRp3038
(dp3039
g66
(dp3040
g74
I3
ssg75
g3034
sg68
(lp3041
g1945
asbasbasbag61
(g77
g63
NtRp3042
(dp3043
g66
(dp3044
sg75
g2723
sg68
(lp3045
g61
(g82
g63
NtRp3046
(dp3047
g66
(dp3048
g86
g87
ssg75
g3042
sg68
(lp3049
S'SCRIPT_NAME'
p3050
asbag61
(g82
g63
NtRp3051
(dp3052
g66
(dp3053
g93
g94
ssg75
g3042
sg68
(lp3054
S':'
asbag61
(g82
g63
NtRp3055
(dp3056
g66
(dp3057
sg75
g3042
sg68
(lp3058
g61
(g62
g63
NtRp3059
(dp3060
g66
(dp3061
g74
I3
ssg75
g3055
sg68
(lp3062
S''
asbasbasbag61
(g77
g63
NtRp3063
(dp3064
g66
(dp3065
sg75
g2723
sg68
(lp3066
g61
(g82
g63
NtRp3067
(dp3068
g66
(dp3069
g86
g87
ssg75
g3063
sg68
(lp3070
S'SERVER_NAME'
p3071
asbag61
(g82
g63
NtRp3072
(dp3073
g66
(dp3074
g93
g94
ssg75
g3063
sg68
(lp3075
S':'
asbag61
(g82
g63
NtRp3076
(dp3077
g66
(dp3078
sg75
g3063
sg68
(lp3079
g61
(g62
g63
NtRp3080
(dp3081
g66
(dp3082
g74
I3
ssg75
g3076
sg68
(lp3083
g2095
asbasbasbag61
(g77
g63
NtRp3084
(dp3085
g66
(dp3086
sg75
g2723
sg68
(lp3087
g61
(g82
g63
NtRp3088
(dp3089
g66
(dp3090
g86
g87
ssg75
g3084
sg68
(lp3091
S'SERVER_PORT'
p3092
asbag61
(g82
g63
NtRp3093
(dp3094
g66
(dp3095
g93
g94
ssg75
g3084
sg68
(lp3096
S':'
asbag61
(g82
g63
NtRp3097
(dp3098
g66
(dp3099
sg75
g3084
sg68
(lp3100
g61
(g62
g63
NtRp3101
(dp3102
g66
(dp3103
g74
I3
ssg75
g3097
sg68
(lp3104
g2117
asbasbasbag61
(g77
g63
NtRp3105
(dp3106
g66
(dp3107
sg75
g2723
sg68
(lp3108
g61
(g82
g63
NtRp3109
(dp3110
g66
(dp3111
g86
g87
ssg75
g3105
sg68
(lp3112
S'SERVER_PROTOCOL'
p3113
asbag61
(g82
g63
NtRp3114
(dp3115
g66
(dp3116
g93
g94
ssg75
g3105
sg68
(lp3117
S':'
asbag61
(g82
g63
NtRp3118
(dp3119
g66
(dp3120
sg75
g3105
sg68
(lp3121
g61
(g62
g63
NtRp3122
(dp3123
g66
(dp3124
g74
I3
ssg75
g3118
sg68
(lp3125
g2139
asbasbasbag61
(g77
g63
NtRp3126
(dp3127
g66
(dp3128
sg75
g2723
sg68
(lp3129
g61
(g82
g63
NtRp3130
(dp3131
g66
(dp3132
g86
g87
ssg75
g3126
sg68
(lp3133
S'SERVER_SOFTWARE'
p3134
asbag61
(g82
g63
NtRp3135
(dp3136
g66
(dp3137
g93
g94
ssg75
g3126
sg68
(lp3138
S':'
asbag61
(g82
g63
NtRp3139
(dp3140
g66
(dp3141
sg75
g3126
sg68
(lp3142
g61
(g62
g63
NtRp3143
(dp3144
g66
(dp3145
g74
I3
ssg75
g3139
sg68
(lp3146
g2161
asbasbasbag61
(g77
g63
NtRp3147
(dp3148
g66
(dp3149
sg75
g2723
sg68
(lp3150
g61
(g82
g63
NtRp3151
(dp3152
g66
(dp3153
g86
g87
ssg75
g3147
sg68
(lp3154
S'WEB2PY_ORIGINAL_URI'
p3155
asbag61
(g82
g63
NtRp3156
(dp3157
g66
(dp3158
g93
g94
ssg75
g3147
sg68
(lp3159
S':'
asbag61
(g82
g63
NtRp3160
(dp3161
g66
(dp3162
sg75
g3147
sg68
(lp3163
g61
(g62
g63
NtRp3164
(dp3165
g66
(dp3166
g74
I3
ssg75
g3160
sg68
(lp3167
g1945
asbasbasbag61
(g77
g63
NtRp3168
(dp3169
g66
(dp3170
sg75
g2723
sg68
(lp3171
g61
(g82
g63
NtRp3172
(dp3173
g66
(dp3174
g86
g87
ssg75
g3168
sg68
(lp3175
S'wsgi.errors'
p3176
asbag61
(g82
g63
NtRp3177
(dp3178
g66
(dp3179
g93
g94
ssg75
g3168
sg68
(lp3180
S':'
asbag61
(g82
g63
NtRp3181
(dp3182
g66
(dp3183
sg75
g3168
sg68
(lp3184
g61
(g62
g63
NtRp3185
(dp3186
g66
(dp3187
g74
I3
ssg75
g3181
sg68
(lp3188
S"<open file '<stderr>', mode 'w' at 0x7fd0cdd5d1e0>"
p3189
asbasbasbag61
(g77
g63
NtRp3190
(dp3191
g66
(dp3192
sg75
g2723
sg68
(lp3193
g61
(g82
g63
NtRp3194
(dp3195
g66
(dp3196
g86
g87
ssg75
g3190
sg68
(lp3197
S'wsgi.file_wrapper'
p3198
asbag61
(g82
g63
NtRp3199
(dp3200
g66
(dp3201
g93
g94
ssg75
g3190
sg68
(lp3202
S':'
asbag61
(g82
g63
NtRp3203
(dp3204
g66
(dp3205
sg75
g3190
sg68
(lp3206
g61
(g62
g63
NtRp3207
(dp3208
g66
(dp3209
g74
I3
ssg75
g3203
sg68
(lp3210
S'<class gluon.rocket.FileWrapper at 0x187cad0>'
p3211
asbasbasbag61
(g77
g63
NtRp3212
(dp3213
g66
(dp3214
sg75
g2723
sg68
(lp3215
g61
(g82
g63
NtRp3216
(dp3217
g66
(dp3218
g86
g87
ssg75
g3212
sg68
(lp3219
S'wsgi.input'
p3220
asbag61
(g82
g63
NtRp3221
(dp3222
g66
(dp3223
g93
g94
ssg75
g3212
sg68
(lp3224
S':'
asbag61
(g82
g63
NtRp3225
(dp3226
g66
(dp3227
sg75
g3212
sg68
(lp3228
g61
(g62
g63
NtRp3229
(dp3230
g66
(dp3231
g74
I3
ssg75
g3225
sg68
(lp3232
S'<cStringIO.StringO object at 0x27dc880>'
p3233
asbasbasbag61
(g77
g63
NtRp3234
(dp3235
g66
(dp3236
sg75
g2723
sg68
(lp3237
g61
(g82
g63
NtRp3238
(dp3239
g66
(dp3240
g86
g87
ssg75
g3234
sg68
(lp3241
S'wsgi.multiprocess'
p3242
asbag61
(g82
g63
NtRp3243
(dp3244
g66
(dp3245
g93
g94
ssg75
g3234
sg68
(lp3246
S':'
asbag61
(g82
g63
NtRp3247
(dp3248
g66
(dp3249
sg75
g3234
sg68
(lp3250
g61
(g62
g63
NtRp3251
(dp3252
g66
(dp3253
g74
I3
ssg75
g3247
sg68
(lp3254
g104
asbasbasbag61
(g77
g63
NtRp3255
(dp3256
g66
(dp3257
sg75
g2723
sg68
(lp3258
g61
(g82
g63
NtRp3259
(dp3260
g66
(dp3261
g86
g87
ssg75
g3255
sg68
(lp3262
S'wsgi.multithread'
p3263
asbag61
(g82
g63
NtRp3264
(dp3265
g66
(dp3266
g93
g94
ssg75
g3255
sg68
(lp3267
S':'
asbag61
(g82
g63
NtRp3268
(dp3269
g66
(dp3270
sg75
g3255
sg68
(lp3271
g61
(g62
g63
NtRp3272
(dp3273
g66
(dp3274
g74
I3
ssg75
g3268
sg68
(lp3275
g2356
asbasbasbag61
(g77
g63
NtRp3276
(dp3277
g66
(dp3278
sg75
g2723
sg68
(lp3279
g61
(g82
g63
NtRp3280
(dp3281
g66
(dp3282
g86
g87
ssg75
g3276
sg68
(lp3283
S'wsgi.run_once'
p3284
asbag61
(g82
g63
NtRp3285
(dp3286
g66
(dp3287
g93
g94
ssg75
g3276
sg68
(lp3288
S':'
asbag61
(g82
g63
NtRp3289
(dp3290
g66
(dp3291
sg75
g3276
sg68
(lp3292
g61
(g62
g63
NtRp3293
(dp3294
g66
(dp3295
g74
I3
ssg75
g3289
sg68
(lp3296
g104
asbasbasbag61
(g77
g63
NtRp3297
(dp3298
g66
(dp3299
sg75
g2723
sg68
(lp3300
g61
(g82
g63
NtRp3301
(dp3302
g66
(dp3303
g86
g87
ssg75
g3297
sg68
(lp3304
S'wsgi.url_scheme'
p3305
asbag61
(g82
g63
NtRp3306
(dp3307
g66
(dp3308
g93
g94
ssg75
g3297
sg68
(lp3309
S':'
asbag61
(g82
g63
NtRp3310
(dp3311
g66
(dp3312
sg75
g3297
sg68
(lp3313
g61
(g62
g63
NtRp3314
(dp3315
g66
(dp3316
g74
I3
ssg75
g3310
sg68
(lp3317
g2399
asbasbasbag61
(g77
g63
NtRp3318
(dp3319
g66
(dp3320
sg75
g2723
sg68
(lp3321
g61
(g82
g63
NtRp3322
(dp3323
g66
(dp3324
g86
g87
ssg75
g3318
sg68
(lp3325
S'wsgi.version'
p3326
asbag61
(g82
g63
NtRp3327
(dp3328
g66
(dp3329
g93
g94
ssg75
g3318
sg68
(lp3330
S':'
asbag61
(g82
g63
NtRp3331
(dp3332
g66
(dp3333
sg75
g3318
sg68
(lp3334
g61
(g62
g63
NtRp3335
(dp3336
g66
(dp3337
g74
I3
ssg75
g3331
sg68
(lp3338
S'1'
asbasbasbasbasbasbasbasbasbasbasbasbasbsS'frames'
p3339
(lp3340
(dp3341
S'file'
p3342
S'/home/strzel_a/web2py/gluon/restricted.py'
p3343
sS'dump'
p3344
(dp3345
S'environment'
p3346
S"{'A': <class 'gluon.html.A'>, 'Auth': <class 'gluon.tools.Auth'>, 'B': <class 'gluon.html.B'>, 'BEAUTIFY': <class 'gluon.html.BEAUTIFY'>, 'BODY': <class 'gluon.html.BODY'>, 'BR': <class 'gluon.html.BR'>, 'CENTER': <class 'gluon.html.CENTER'>, 'CLEANUP': <class 'gluon.validators.CLEANUP'>, 'CODE': <class 'gluon.html.CODE'>, 'CRYPT': <class 'gluon.validators.CRYPT'>, ...}"
p3347
sS'ccode'
p3348
S'<code object <module> at 0x27fc3f0, file "/home/...eb2py/applications/bench/models/menu.py", line 7>'
p3349
ssS'lnum'
p3350
I181
sS'lines'
p3351
(dp3352
I176
S'    try:'
p3353
sI177
S'        if type(code) == types.CodeType:'
p3354
sI178
S'            ccode = code'
p3355
sI179
S'        else:'
p3356
sI180
S'            ccode = compile2(code,layer)'
p3357
sI181
S'        exec ccode in environment'
p3358
sI182
S'    except HTTP:'
p3359
sI183
S'        raise'
p3360
sI184
S'    except Exception:'
p3361
sI185
S'        # XXX Show exception in Wing IDE if running in debugger'
p3362
ssS'call'
p3363
S'(code="# -*- coding: utf-8 -*-\\n\\n#######################... OUTCSS)]\\n    js_files = [URL(\'static\', OUTJS)]\\n\\n", environment={\'A\': <class \'gluon.html.A\'>, \'Auth\': <class \'gluon.tools.Auth\'>, \'B\': <class \'gluon.html.B\'>, \'BEAUTIFY\': <class \'gluon.html.BEAUTIFY\'>, \'BODY\': <class \'gluon.html.BODY\'>, \'BR\': <class \'gluon.html.BR\'>, \'CENTER\': <class \'gluon.html.CENTER\'>, \'CLEANUP\': <class \'gluon.validators.CLEANUP\'>, \'CODE\': <class \'gluon.html.CODE\'>, \'CRYPT\': <class \'gluon.validators.CRYPT\'>, ...}, layer=\'/home/strzel_a/web2py/applications/bench/models/menu.py\')'
p3364
sS'func'
p3365
S'restricted'
p3366
sa(dp3367
g3342
S'/home/strzel_a/web2py/applications/bench/models/menu.py'
p3368
sg3344
(dp3369
S'OUTJS'
p3370
S'undefined'
p3371
sS'minify_prod'
p3372
S'<function minify_prod>'
p3373
sS'OUTCSS'
p3374
g3371
ssg3350
I71
sg3351
(dp3375
I65
S'    return OUTJS, OUTCSS'
p3376
sI66
S''
sI67
S'#'
sI68
S'#'
sI69
S'#'
sI70
S'if prod==True:'
p3377
sI71
S'    (OUTJS, OUTCSS) = minify_prod()'
p3378
sI72
S"    css_files = [URL('static', OUTCSS)]"
p3379
sI73
S"    js_files = [URL('static', OUTJS)]"
p3380
sI74
S''
ssg3363
S'()'
p3381
sg3365
S'<module>'
p3382
sa(dp3383
g3342
S'/home/strzel_a/web2py/applications/bench/models/menu.py'
p3384
sg3344
(dp3385
S'global css_files'
p3386
S"['/bench/static/css/base.css', '/bench/static/css/main.css']"
p3387
sS'global app_name'
p3388
S"'bench'"
p3389
sS'compress'
p3390
S"<module 'applications.bench.modules.pack' from 'applications/bench/modules/pack.py'>"
p3391
sS'compress.process_css'
p3392
S'<function process_css>'
p3393
sS'OUTCSS'
p3394
g3371
ssg3350
I63
sg3351
(dp3395
I64
S'    #OUTJS = compress.process_js(js_files, app_name)'
p3396
sI65
S'    return OUTJS, OUTCSS'
p3397
sI66
S''
sI67
S'#'
sI58
S'    #'
p3398
sI59
S'    logger.info("+----------- File minification")'
p3399
sI60
S'    global css_files'
p3400
sI61
S'    global js_files'
p3401
sI62
S"    compress = local_import('pack')"
p3402
sI63
S'    OUTCSS = compress.process_css(css_files, app_name)'
p3403
ssg3363
S'()'
p3404
sg3365
S'minify_prod'
p3405
sa(dp3406
g3342
S'/home/strzel_a/web2py/applications/bench/modules/pack.py'
p3407
sg3344
(dp3408
S'app_path'
p3409
S"'bench'"
p3410
sS'builtinopen'
p3411
S'<built-in function open>'
p3412
sS'global os'
p3413
S"<module 'os' from '/usr/lib/python2.6/os.pyc'>"
p3414
sS'os.path.join'
p3415
S'<function join>'
p3416
sS'global OUTCSS'
p3417
S"'min.css'"
p3418
sS'os.path'
p3419
S"<module 'posixpath' from '/usr/lib/python2.6/posixpath.pyc'>"
p3420
sS'out'
p3421
g3371
ssg3350
I65
sg3351
(dp3422
I64
S'        print "delete nop"'
p3423
sI65
S"    out = open(os.path.join(app_path, 'static', OUTCSS), 'wb')"
p3424
sI66
S'    for t in css_files:'
p3425
sI67
S'        print "Processing " + t'
p3426
sI68
S"        fd1 = open(app_path + t, 'r')"
p3427
sI69
S'        compress_css(fd1, out)'
p3428
sI60
S'def process_css(css_files, app_path):'
p3429
sI61
S'    try:'
p3430
sI62
S"        os.remove(os.path.join(app_path, 'static', OUTCSS))"
p3431
sI63
S'    except:'
p3432
ssg3363
S"(css_files=['/bench/static/css/base.css', '/bench/static/css/main.css'], app_path='bench')"
p3433
sg3365
S'process_css'
p3434
sasS'pyver'
p3435
S'Python 2.6.6: /usr/bin/python'
p3436
sS'session'
p3437
g61
(g62
g63
NtRp3438
(dp3439
g66
(dp3440
sg68
(lp3441
g61
(g70
g63
NtRp3442
(dp3443
g66
(dp3444
g74
I5
ssg75
Nsg68
(lp3445
g61
(g77
g63
NtRp3446
(dp3447
g66
(dp3448
sg75
g3442
sg68
(lp3449
g61
(g82
g63
NtRp3450
(dp3451
g66
(dp3452
g86
g87
ssg75
g3446
sg68
(lp3453
S'last_query'
p3454
asbag61
(g82
g63
NtRp3455
(dp3456
g66
(dp3457
g93
g94
ssg75
g3446
sg68
(lp3458
S':'
asbag61
(g82
g63
NtRp3459
(dp3460
g66
(dp3461
sg75
g3446
sg68
(lp3462
g61
(g62
g63
NtRp3463
(dp3464
g66
(dp3465
g74
I5
ssg75
g3459
sg68
(lp3466
S'db.articles.id>0'
p3467
asbasbasbasbasbsS'etype'
p3468
S"<type 'exceptions.IOError'>"
p3469
sS'date'
p3470
S'Thu Apr 28 23:10:10 2011'
p3471
sS'response'
p3472
g61
(g62
g63
NtRp3473
(dp3474
g66
(dp3475
sg68
(lp3476
g61
(g70
g63
NtRp3477
(dp3478
g66
(dp3479
g74
I5
ssg75
Nsg68
(lp3480
g61
(g77
g63
NtRp3481
(dp3482
g66
(dp3483
sg75
g3477
sg68
(lp3484
g61
(g82
g63
NtRp3485
(dp3486
g66
(dp3487
g86
g87
ssg75
g3481
sg68
(lp3488
g159
asbag61
(g82
g63
NtRp3489
(dp3490
g66
(dp3491
g93
g94
ssg75
g3481
sg68
(lp3492
S':'
asbag61
(g82
g63
NtRp3493
(dp3494
g66
(dp3495
sg75
g3481
sg68
(lp3496
g61
(g62
g63
NtRp3497
(dp3498
g66
(dp3499
g74
I5
ssg75
g3493
sg68
(lp3500
S'<cStringIO.StringO object at 0x27fd768>'
p3501
asbasbasbag61
(g77
g63
NtRp3502
(dp3503
g66
(dp3504
sg75
g3477
sg68
(lp3505
g61
(g82
g63
NtRp3506
(dp3507
g66
(dp3508
g86
g87
ssg75
g3502
sg68
(lp3509
g225
asbag61
(g82
g63
NtRp3510
(dp3511
g66
(dp3512
g93
g94
ssg75
g3502
sg68
(lp3513
S':'
asbag61
(g82
g63
NtRp3514
(dp3515
g66
(dp3516
sg75
g3502
sg68
(lp3517
g61
(g62
g63
NtRp3518
(dp3519
g66
(dp3520
g74
I5
ssg75
g3514
sg68
(lp3521
g61
(g70
g63
NtRp3522
(dp3523
g66
(dp3524
g74
I4
ssg75
Nsg68
(lp3525
g61
(g77
g63
NtRp3526
(dp3527
g66
(dp3528
sg75
g3522
sg68
(lp3529
g61
(g82
g63
NtRp3530
(dp3531
g66
(dp3532
g86
g87
ssg75
g3526
sg68
(lp3533
S'session_id_bench'
p3534
asbag61
(g82
g63
NtRp3535
(dp3536
g66
(dp3537
g93
g94
ssg75
g3526
sg68
(lp3538
S':'
asbag61
(g82
g63
NtRp3539
(dp3540
g66
(dp3541
sg75
g3526
sg68
(lp3542
g61
(g62
g63
NtRp3543
(dp3544
g66
(dp3545
g74
I4
ssg75
g3539
sg68
(lp3546
g61
(g70
g63
NtRp3547
(dp3548
g66
(dp3549
g74
I3
ssg75
Nsg68
(lp3550
g61
(g77
g63
NtRp3551
(dp3552
g66
(dp3553
sg75
g3547
sg68
(lp3554
g61
(g82
g63
NtRp3555
(dp3556
g66
(dp3557
g86
g87
ssg75
g3551
sg68
(lp3558
g275
asbag61
(g82
g63
NtRp3559
(dp3560
g66
(dp3561
g93
g94
ssg75
g3551
sg68
(lp3562
S':'
asbag61
(g82
g63
NtRp3563
(dp3564
g66
(dp3565
sg75
g3551
sg68
(lp3566
g61
(g62
g63
NtRp3567
(dp3568
g66
(dp3569
g74
I3
ssg75
g3563
sg68
(lp3570
S''
asbasbasbag61
(g77
g63
NtRp3571
(dp3572
g66
(dp3573
sg75
g3547
sg68
(lp3574
g61
(g82
g63
NtRp3575
(dp3576
g66
(dp3577
g86
g87
ssg75
g3571
sg68
(lp3578
g296
asbag61
(g82
g63
NtRp3579
(dp3580
g66
(dp3581
g93
g94
ssg75
g3571
sg68
(lp3582
S':'
asbag61
(g82
g63
NtRp3583
(dp3584
g66
(dp3585
sg75
g3571
sg68
(lp3586
g61
(g62
g63
NtRp3587
(dp3588
g66
(dp3589
g74
I3
ssg75
g3583
sg68
(lp3590
S''
asbasbasbag61
(g77
g63
NtRp3591
(dp3592
g66
(dp3593
sg75
g3547
sg68
(lp3594
g61
(g82
g63
NtRp3595
(dp3596
g66
(dp3597
g86
g87
ssg75
g3591
sg68
(lp3598
g317
asbag61
(g82
g63
NtRp3599
(dp3600
g66
(dp3601
g93
g94
ssg75
g3591
sg68
(lp3602
S':'
asbag61
(g82
g63
NtRp3603
(dp3604
g66
(dp3605
sg75
g3591
sg68
(lp3606
g61
(g62
g63
NtRp3607
(dp3608
g66
(dp3609
g74
I3
ssg75
g3603
sg68
(lp3610
S''
asbasbasbag61
(g77
g63
NtRp3611
(dp3612
g66
(dp3613
sg75
g3547
sg68
(lp3614
g61
(g82
g63
NtRp3615
(dp3616
g66
(dp3617
g86
g87
ssg75
g3611
sg68
(lp3618
g338
asbag61
(g82
g63
NtRp3619
(dp3620
g66
(dp3621
g93
g94
ssg75
g3611
sg68
(lp3622
S':'
asbag61
(g82
g63
NtRp3623
(dp3624
g66
(dp3625
sg75
g3611
sg68
(lp3626
g61
(g62
g63
NtRp3627
(dp3628
g66
(dp3629
g74
I3
ssg75
g3623
sg68
(lp3630
S''
asbasbasbag61
(g77
g63
NtRp3631
(dp3632
g66
(dp3633
sg75
g3547
sg68
(lp3634
g61
(g82
g63
NtRp3635
(dp3636
g66
(dp3637
g86
g87
ssg75
g3631
sg68
(lp3638
g359
asbag61
(g82
g63
NtRp3639
(dp3640
g66
(dp3641
g93
g94
ssg75
g3631
sg68
(lp3642
S':'
asbag61
(g82
g63
NtRp3643
(dp3644
g66
(dp3645
sg75
g3631
sg68
(lp3646
g61
(g62
g63
NtRp3647
(dp3648
g66
(dp3649
g74
I3
ssg75
g3643
sg68
(lp3650
S''
asbasbasbag61
(g77
g63
NtRp3651
(dp3652
g66
(dp3653
sg75
g3547
sg68
(lp3654
g61
(g82
g63
NtRp3655
(dp3656
g66
(dp3657
g86
g87
ssg75
g3651
sg68
(lp3658
g380
asbag61
(g82
g63
NtRp3659
(dp3660
g66
(dp3661
g93
g94
ssg75
g3651
sg68
(lp3662
S':'
asbag61
(g82
g63
NtRp3663
(dp3664
g66
(dp3665
sg75
g3651
sg68
(lp3666
g61
(g62
g63
NtRp3667
(dp3668
g66
(dp3669
g74
I3
ssg75
g3663
sg68
(lp3670
S'/'
asbasbasbag61
(g77
g63
NtRp3671
(dp3672
g66
(dp3673
sg75
g3547
sg68
(lp3674
g61
(g82
g63
NtRp3675
(dp3676
g66
(dp3677
g86
g87
ssg75
g3671
sg68
(lp3678
g401
asbag61
(g82
g63
NtRp3679
(dp3680
g66
(dp3681
g93
g94
ssg75
g3671
sg68
(lp3682
S':'
asbag61
(g82
g63
NtRp3683
(dp3684
g66
(dp3685
sg75
g3671
sg68
(lp3686
g61
(g62
g63
NtRp3687
(dp3688
g66
(dp3689
g74
I3
ssg75
g3683
sg68
(lp3690
S''
asbasbasbag61
(g77
g63
NtRp3691
(dp3692
g66
(dp3693
sg75
g3547
sg68
(lp3694
g61
(g82
g63
NtRp3695
(dp3696
g66
(dp3697
g86
g87
ssg75
g3691
sg68
(lp3698
g422
asbag61
(g82
g63
NtRp3699
(dp3700
g66
(dp3701
g93
g94
ssg75
g3691
sg68
(lp3702
S':'
asbag61
(g82
g63
NtRp3703
(dp3704
g66
(dp3705
sg75
g3691
sg68
(lp3706
g61
(g62
g63
NtRp3707
(dp3708
g66
(dp3709
g74
I3
ssg75
g3703
sg68
(lp3710
S''
asbasbasbasbasbasbasbasbasbasbasbag61
(g77
g63
NtRp3711
(dp3712
g66
(dp3713
sg75
g3477
sg68
(lp3714
g61
(g82
g63
NtRp3715
(dp3716
g66
(dp3717
g86
g87
ssg75
g3711
sg68
(lp3718
S'files'
p3719
asbag61
(g82
g63
NtRp3720
(dp3721
g66
(dp3722
g93
g94
ssg75
g3711
sg68
(lp3723
S':'
asbag61
(g82
g63
NtRp3724
(dp3725
g66
(dp3726
sg75
g3711
sg68
(lp3727
g61
(g62
g63
NtRp3728
(dp3729
g66
(dp3730
g74
I5
ssg75
g3724
sg68
(lp3731
g61
(g70
g63
NtRp3732
(dp3733
g66
(dp3734
g74
I4
ssg75
Nsg68
(lp3735
sbasbasbasbag61
(g77
g63
NtRp3736
(dp3737
g66
(dp3738
sg75
g3477
sg68
(lp3739
g61
(g82
g63
NtRp3740
(dp3741
g66
(dp3742
g86
g87
ssg75
g3736
sg68
(lp3743
S'flash'
p3744
asbag61
(g82
g63
NtRp3745
(dp3746
g66
(dp3747
g93
g94
ssg75
g3736
sg68
(lp3748
S':'
asbag61
(g82
g63
NtRp3749
(dp3750
g66
(dp3751
sg75
g3736
sg68
(lp3752
g61
(g62
g63
NtRp3753
(dp3754
g66
(dp3755
g74
I5
ssg75
g3749
sg68
(lp3756
S''
asbasbasbag61
(g77
g63
NtRp3757
(dp3758
g66
(dp3759
sg75
g3477
sg68
(lp3760
g61
(g82
g63
NtRp3761
(dp3762
g66
(dp3763
g86
g87
ssg75
g3757
sg68
(lp3764
S'headers'
p3765
asbag61
(g82
g63
NtRp3766
(dp3767
g66
(dp3768
g93
g94
ssg75
g3757
sg68
(lp3769
S':'
asbag61
(g82
g63
NtRp3770
(dp3771
g66
(dp3772
sg75
g3757
sg68
(lp3773
g61
(g62
g63
NtRp3774
(dp3775
g66
(dp3776
g74
I5
ssg75
g3770
sg68
(lp3777
g61
(g70
g63
NtRp3778
(dp3779
g66
(dp3780
g74
I4
ssg75
Nsg68
(lp3781
g61
(g77
g63
NtRp3782
(dp3783
g66
(dp3784
sg75
g3778
sg68
(lp3785
g61
(g82
g63
NtRp3786
(dp3787
g66
(dp3788
g86
g87
ssg75
g3782
sg68
(lp3789
S'Cache-Control'
p3790
asbag61
(g82
g63
NtRp3791
(dp3792
g66
(dp3793
g93
g94
ssg75
g3782
sg68
(lp3794
S':'
asbag61
(g82
g63
NtRp3795
(dp3796
g66
(dp3797
sg75
g3782
sg68
(lp3798
g61
(g62
g63
NtRp3799
(dp3800
g66
(dp3801
g74
I4
ssg75
g3795
sg68
(lp3802
S'no-store, no-cache, must-revalidate, post-check=0, pre-check=0'
p3803
asbasbasbag61
(g77
g63
NtRp3804
(dp3805
g66
(dp3806
sg75
g3778
sg68
(lp3807
g61
(g82
g63
NtRp3808
(dp3809
g66
(dp3810
g86
g87
ssg75
g3804
sg68
(lp3811
S'Content-Type'
p3812
asbag61
(g82
g63
NtRp3813
(dp3814
g66
(dp3815
g93
g94
ssg75
g3804
sg68
(lp3816
S':'
asbag61
(g82
g63
NtRp3817
(dp3818
g66
(dp3819
sg75
g3804
sg68
(lp3820
g61
(g62
g63
NtRp3821
(dp3822
g66
(dp3823
g74
I4
ssg75
g3817
sg68
(lp3824
S'text/html; charset=utf-8'
p3825
asbasbasbag61
(g77
g63
NtRp3826
(dp3827
g66
(dp3828
sg75
g3778
sg68
(lp3829
g61
(g82
g63
NtRp3830
(dp3831
g66
(dp3832
g86
g87
ssg75
g3826
sg68
(lp3833
S'Expires'
p3834
asbag61
(g82
g63
NtRp3835
(dp3836
g66
(dp3837
g93
g94
ssg75
g3826
sg68
(lp3838
S':'
asbag61
(g82
g63
NtRp3839
(dp3840
g66
(dp3841
sg75
g3826
sg68
(lp3842
g61
(g62
g63
NtRp3843
(dp3844
g66
(dp3845
g74
I4
ssg75
g3839
sg68
(lp3846
S'Thu, 28 Apr 2011 21:10:10 GMT'
p3847
asbasbasbag61
(g77
g63
NtRp3848
(dp3849
g66
(dp3850
sg75
g3778
sg68
(lp3851
g61
(g82
g63
NtRp3852
(dp3853
g66
(dp3854
g86
g87
ssg75
g3848
sg68
(lp3855
S'Pragma'
p3856
asbag61
(g82
g63
NtRp3857
(dp3858
g66
(dp3859
g93
g94
ssg75
g3848
sg68
(lp3860
S':'
asbag61
(g82
g63
NtRp3861
(dp3862
g66
(dp3863
sg75
g3848
sg68
(lp3864
g61
(g62
g63
NtRp3865
(dp3866
g66
(dp3867
g74
I4
ssg75
g3861
sg68
(lp3868
S'no-cache'
p3869
asbasbasbasbasbasbasbag61
(g77
g63
NtRp3870
(dp3871
g66
(dp3872
sg75
g3477
sg68
(lp3873
g61
(g82
g63
NtRp3874
(dp3875
g66
(dp3876
g86
g87
ssg75
g3870
sg68
(lp3877
S'menu'
p3878
asbag61
(g82
g63
NtRp3879
(dp3880
g66
(dp3881
g93
g94
ssg75
g3870
sg68
(lp3882
S':'
asbag61
(g82
g63
NtRp3883
(dp3884
g66
(dp3885
sg75
g3870
sg68
(lp3886
g61
(g62
g63
NtRp3887
(dp3888
g66
(dp3889
g74
I5
ssg75
g3883
sg68
(lp3890
g61
(g70
g63
NtRp3891
(dp3892
g66
(dp3893
g74
I4
ssg75
Nsg68
(lp3894
sbasbasbasbag61
(g77
g63
NtRp3895
(dp3896
g66
(dp3897
sg75
g3477
sg68
(lp3898
g61
(g82
g63
NtRp3899
(dp3900
g66
(dp3901
g86
g87
ssg75
g3895
sg68
(lp3902
S'meta'
p3903
asbag61
(g82
g63
NtRp3904
(dp3905
g66
(dp3906
g93
g94
ssg75
g3895
sg68
(lp3907
S':'
asbag61
(g82
g63
NtRp3908
(dp3909
g66
(dp3910
sg75
g3895
sg68
(lp3911
g61
(g62
g63
NtRp3912
(dp3913
g66
(dp3914
g74
I5
ssg75
g3908
sg68
(lp3915
g61
(g70
g63
NtRp3916
(dp3917
g66
(dp3918
g74
I4
ssg75
Nsg68
(lp3919
g61
(g77
g63
NtRp3920
(dp3921
g66
(dp3922
sg75
g3916
sg68
(lp3923
g61
(g82
g63
NtRp3924
(dp3925
g66
(dp3926
g86
g87
ssg75
g3920
sg68
(lp3927
S'author'
p3928
asbag61
(g82
g63
NtRp3929
(dp3930
g66
(dp3931
g93
g94
ssg75
g3920
sg68
(lp3932
S':'
asbag61
(g82
g63
NtRp3933
(dp3934
g66
(dp3935
sg75
g3920
sg68
(lp3936
g61
(g62
g63
NtRp3937
(dp3938
g66
(dp3939
g74
I4
ssg75
g3933
sg68
(lp3940
S'Strzelewicz Alexandre'
p3941
asbasbasbag61
(g77
g63
NtRp3942
(dp3943
g66
(dp3944
sg75
g3916
sg68
(lp3945
g61
(g82
g63
NtRp3946
(dp3947
g66
(dp3948
g86
g87
ssg75
g3942
sg68
(lp3949
S'copyright'
p3950
asbag61
(g82
g63
NtRp3951
(dp3952
g66
(dp3953
g93
g94
ssg75
g3942
sg68
(lp3954
S':'
asbag61
(g82
g63
NtRp3955
(dp3956
g66
(dp3957
sg75
g3942
sg68
(lp3958
g61
(g62
g63
NtRp3959
(dp3960
g66
(dp3961
g74
I4
ssg75
g3955
sg68
(lp3962
S'Copyright 2010-2012'
p3963
asbasbasbag61
(g77
g63
NtRp3964
(dp3965
g66
(dp3966
sg75
g3916
sg68
(lp3967
g61
(g82
g63
NtRp3968
(dp3969
g66
(dp3970
g86
g87
ssg75
g3964
sg68
(lp3971
S'description'
p3972
asbag61
(g82
g63
NtRp3973
(dp3974
g66
(dp3975
g93
g94
ssg75
g3964
sg68
(lp3976
S':'
asbag61
(g82
g63
NtRp3977
(dp3978
g66
(dp3979
sg75
g3964
sg68
(lp3980
g61
(g62
g63
NtRp3981
(dp3982
g66
(dp3983
g74
I4
ssg75
g3977
sg68
(lp3984
S''
asbasbasbag61
(g77
g63
NtRp3985
(dp3986
g66
(dp3987
sg75
g3916
sg68
(lp3988
g61
(g82
g63
NtRp3989
(dp3990
g66
(dp3991
g86
g87
ssg75
g3985
sg68
(lp3992
S'generator'
p3993
asbag61
(g82
g63
NtRp3994
(dp3995
g66
(dp3996
g93
g94
ssg75
g3985
sg68
(lp3997
S':'
asbag61
(g82
g63
NtRp3998
(dp3999
g66
(dp4000
sg75
g3985
sg68
(lp4001
g61
(g62
g63
NtRp4002
(dp4003
g66
(dp4004
g74
I4
ssg75
g3998
sg68
(lp4005
S''
asbasbasbag61
(g77
g63
NtRp4006
(dp4007
g66
(dp4008
sg75
g3916
sg68
(lp4009
g61
(g82
g63
NtRp4010
(dp4011
g66
(dp4012
g86
g87
ssg75
g4006
sg68
(lp4013
S'keywords'
p4014
asbag61
(g82
g63
NtRp4015
(dp4016
g66
(dp4017
g93
g94
ssg75
g4006
sg68
(lp4018
S':'
asbag61
(g82
g63
NtRp4019
(dp4020
g66
(dp4021
sg75
g4006
sg68
(lp4022
g61
(g62
g63
NtRp4023
(dp4024
g66
(dp4025
g74
I4
ssg75
g4019
sg68
(lp4026
S''
asbasbasbasbasbasbasbag61
(g77
g63
NtRp4027
(dp4028
g66
(dp4029
sg75
g3477
sg68
(lp4030
g61
(g82
g63
NtRp4031
(dp4032
g66
(dp4033
g86
g87
ssg75
g4027
sg68
(lp4034
S'postprocessing'
p4035
asbag61
(g82
g63
NtRp4036
(dp4037
g66
(dp4038
g93
g94
ssg75
g4027
sg68
(lp4039
S':'
asbag61
(g82
g63
NtRp4040
(dp4041
g66
(dp4042
sg75
g4027
sg68
(lp4043
g61
(g62
g63
NtRp4044
(dp4045
g66
(dp4046
g74
I5
ssg75
g4040
sg68
(lp4047
g61
(g70
g63
NtRp4048
(dp4049
g66
(dp4050
g74
I4
ssg75
Nsg68
(lp4051
sbasbasbasbag61
(g77
g63
NtRp4052
(dp4053
g66
(dp4054
sg75
g3477
sg68
(lp4055
g61
(g82
g63
NtRp4056
(dp4057
g66
(dp4058
g86
g87
ssg75
g4052
sg68
(lp4059
S'session_file'
p4060
asbag61
(g82
g63
NtRp4061
(dp4062
g66
(dp4063
g93
g94
ssg75
g4052
sg68
(lp4064
S':'
asbag61
(g82
g63
NtRp4065
(dp4066
g66
(dp4067
sg75
g4052
sg68
(lp4068
g61
(g62
g63
NtRp4069
(dp4070
g66
(dp4071
g74
I5
ssg75
g4065
sg68
(lp4072
S"<open file '/home/strzel_a/web2py/applications/bench/sessions/127.0.0.1-bd75bc63-5cd9-4975-a78e-056513a6b389', mode 'rb+' at 0x27c7390>"
p4073
asbasbasbag61
(g77
g63
NtRp4074
(dp4075
g66
(dp4076
sg75
g3477
sg68
(lp4077
g61
(g82
g63
NtRp4078
(dp4079
g66
(dp4080
g86
g87
ssg75
g4074
sg68
(lp4081
S'session_filename'
p4082
asbag61
(g82
g63
NtRp4083
(dp4084
g66
(dp4085
g93
g94
ssg75
g4074
sg68
(lp4086
S':'
asbag61
(g82
g63
NtRp4087
(dp4088
g66
(dp4089
sg75
g4074
sg68
(lp4090
g61
(g62
g63
NtRp4091
(dp4092
g66
(dp4093
g74
I5
ssg75
g4087
sg68
(lp4094
S'/home/strzel_a/web2py/applications/bench/sessions/127.0.0.1-bd75bc63-5cd9-4975-a78e-056513a6b389'
p4095
asbasbasbag61
(g77
g63
NtRp4096
(dp4097
g66
(dp4098
sg75
g3477
sg68
(lp4099
g61
(g82
g63
NtRp4100
(dp4101
g66
(dp4102
g86
g87
ssg75
g4096
sg68
(lp4103
S'session_id'
p4104
asbag61
(g82
g63
NtRp4105
(dp4106
g66
(dp4107
g93
g94
ssg75
g4096
sg68
(lp4108
S':'
asbag61
(g82
g63
NtRp4109
(dp4110
g66
(dp4111
sg75
g4096
sg68
(lp4112
g61
(g62
g63
NtRp4113
(dp4114
g66
(dp4115
g74
I5
ssg75
g4109
sg68
(lp4116
S'127.0.0.1-bd75bc63-5cd9-4975-a78e-056513a6b389'
p4117
asbasbasbag61
(g77
g63
NtRp4118
(dp4119
g66
(dp4120
sg75
g3477
sg68
(lp4121
g61
(g82
g63
NtRp4122
(dp4123
g66
(dp4124
g86
g87
ssg75
g4118
sg68
(lp4125
S'session_id_name'
p4126
asbag61
(g82
g63
NtRp4127
(dp4128
g66
(dp4129
g93
g94
ssg75
g4118
sg68
(lp4130
S':'
asbag61
(g82
g63
NtRp4131
(dp4132
g66
(dp4133
sg75
g4118
sg68
(lp4134
g61
(g62
g63
NtRp4135
(dp4136
g66
(dp4137
g74
I5
ssg75
g4131
sg68
(lp4138
g3534
asbasbasbag61
(g77
g63
NtRp4139
(dp4140
g66
(dp4141
sg75
g3477
sg68
(lp4142
g61
(g82
g63
NtRp4143
(dp4144
g66
(dp4145
g86
g87
ssg75
g4139
sg68
(lp4146
S'session_locked'
p4147
asbag61
(g82
g63
NtRp4148
(dp4149
g66
(dp4150
g93
g94
ssg75
g4139
sg68
(lp4151
S':'
asbag61
(g82
g63
NtRp4152
(dp4153
g66
(dp4154
sg75
g4139
sg68
(lp4155
g61
(g62
g63
NtRp4156
(dp4157
g66
(dp4158
g74
I5
ssg75
g4152
sg68
(lp4159
g2356
asbasbasbag61
(g77
g63
NtRp4160
(dp4161
g66
(dp4162
sg75
g3477
sg68
(lp4163
g61
(g82
g63
NtRp4164
(dp4165
g66
(dp4166
g86
g87
ssg75
g4160
sg68
(lp4167
S'session_new'
p4168
asbag61
(g82
g63
NtRp4169
(dp4170
g66
(dp4171
g93
g94
ssg75
g4160
sg68
(lp4172
S':'
asbag61
(g82
g63
NtRp4173
(dp4174
g66
(dp4175
sg75
g4160
sg68
(lp4176
g61
(g62
g63
NtRp4177
(dp4178
g66
(dp4179
g74
I5
ssg75
g4173
sg68
(lp4180
g104
asbasbasbag61
(g77
g63
NtRp4181
(dp4182
g66
(dp4183
sg75
g3477
sg68
(lp4184
g61
(g82
g63
NtRp4185
(dp4186
g66
(dp4187
g86
g87
ssg75
g4181
sg68
(lp4188
S'status'
p4189
asbag61
(g82
g63
NtRp4190
(dp4191
g66
(dp4192
g93
g94
ssg75
g4181
sg68
(lp4193
S':'
asbag61
(g82
g63
NtRp4194
(dp4195
g66
(dp4196
sg75
g4181
sg68
(lp4197
g61
(g62
g63
NtRp4198
(dp4199
g66
(dp4200
g74
I5
ssg75
g4194
sg68
(lp4201
S'200'
p4202
asbasbasbag61
(g77
g63
NtRp4203
(dp4204
g66
(dp4205
sg75
g3477
sg68
(lp4206
g61
(g82
g63
NtRp4207
(dp4208
g66
(dp4209
g86
g87
ssg75
g4203
sg68
(lp4210
S'subtitle'
p4211
asbag61
(g82
g63
NtRp4212
(dp4213
g66
(dp4214
g93
g94
ssg75
g4203
sg68
(lp4215
S':'
asbag61
(g82
g63
NtRp4216
(dp4217
g66
(dp4218
sg75
g4203
sg68
(lp4219
g61
(g62
g63
NtRp4220
(dp4221
g66
(dp4222
g74
I5
ssg75
g4216
sg68
(lp4223
cgluon.languages
lazyT_unpickle
p4224
(S's\r\x00\x00\x00customize me!'
tRp4225
asbasbasbag61
(g77
g63
NtRp4226
(dp4227
g66
(dp4228
sg75
g3477
sg68
(lp4229
g61
(g82
g63
NtRp4230
(dp4231
g66
(dp4232
g86
g87
ssg75
g4226
sg68
(lp4233
S'title'
p4234
asbag61
(g82
g63
NtRp4235
(dp4236
g66
(dp4237
g93
g94
ssg75
g4226
sg68
(lp4238
S':'
asbag61
(g82
g63
NtRp4239
(dp4240
g66
(dp4241
sg75
g4226
sg68
(lp4242
g61
(g62
g63
NtRp4243
(dp4244
g66
(dp4245
g74
I5
ssg75
g4239
sg68
(lp4246
S'Template app'
p4247
asbasbasbag61
(g77
g63
NtRp4248
(dp4249
g66
(dp4250
sg75
g3477
sg68
(lp4251
g61
(g82
g63
NtRp4252
(dp4253
g66
(dp4254
g86
g87
ssg75
g4248
sg68
(lp4255
g2638
asbag61
(g82
g63
NtRp4256
(dp4257
g66
(dp4258
g93
g94
ssg75
g4248
sg68
(lp4259
S':'
asbag61
(g82
g63
NtRp4260
(dp4261
g66
(dp4262
sg75
g4248
sg68
(lp4263
g61
(g62
g63
NtRp4264
(dp4265
g66
(dp4266
g74
I5
ssg75
g4260
sg68
(lp4267
g2651
asbasbasbag61
(g77
g63
NtRp4268
(dp4269
g66
(dp4270
sg75
g3477
sg68
(lp4271
g61
(g82
g63
NtRp4272
(dp4273
g66
(dp4274
g86
g87
ssg75
g4268
sg68
(lp4275
S'view'
p4276
asbag61
(g82
g63
NtRp4277
(dp4278
g66
(dp4279
g93
g94
ssg75
g4268
sg68
(lp4280
S':'
asbag61
(g82
g63
NtRp4281
(dp4282
g66
(dp4283
sg75
g4268
sg68
(lp4284
g61
(g62
g63
NtRp4285
(dp4286
g66
(dp4287
g74
I5
ssg75
g4281
sg68
(lp4288
S'default/index.html'
p4289
asbasbasbasbasbsS'locals'
p4290
(dp4291
S'app_path'
p4292
S"'bench'"
p4293
sS'css_files'
p4294
S"['/bench/static/css/base.css', '/bench/static/css/main.css']"
p4295
sssS'traceback'
p4296
S'Traceback (most recent call last):\n  File "/home/strzel_a/web2py/gluon/restricted.py", line 181, in restricted\n    exec ccode in environment\n  File "/home/strzel_a/web2py/applications/bench/models/menu.py", line 71, in <module>\n    (OUTJS, OUTCSS) = minify_prod()\n  File "/home/strzel_a/web2py/applications/bench/models/menu.py", line 63, in minify_prod\n    OUTCSS = compress.process_css(css_files, app_name)\n  File "applications/bench/modules/pack.py", line 65, in process_css\n    out = open(os.path.join(app_path, \'static\', OUTCSS), \'wb\')\nIOError: [Errno 2] No such file or directory: \'bench/static/min.css\'\n'
p4297
s.