(dp1
S'output'
p2
S''
sS'layer'
p3
S'/home/strzel_a/web2py/applications/bench/models/menu.py'
p4
sS'code'
p5
S'# -*- coding: utf-8 -*-\n\n#########################################################################\n## Customize your APP title, subtitle and menus here\n#########################################################################\n\nresponse.title = \'Template app\'\n\nresponse.subtitle = T(\'customize me!\')\n\n########################################################################\n# Data that will be append to the beginning\n# of views/layouts/layout.html\n#\n# More infos about meta : http://dev.w3.org/html5/markup/meta.name.html\n########################################################################\n\nresponse.meta.author = \'Strzelewicz Alexandre\'\nresponse.meta.description = \'\'\nresponse.meta.keywords = \'\'\nresponse.meta.generator = \'\'\nresponse.meta.copyright = \'Copyright 2010-2012\'\n\n########################################################################\n#\n# Automatic files minification\n#\n########################################################################\n\n#@cache(request.env.path_info, time_expire=999999, cache_model=cache.ram)\ndef get_urls():\n    logger.info("+----------- URL update")\n    #\n    # Here we include files that will be included on\n    # views/layouts/layout.html\n    #\n    # By adding them here, each files will be minimized\n    # if the server is set on PRODUCTION environment\n    #\n    js_files = [\n        \'/static/js/jquery-1.5.2.js\',\n        \'/static/js/main.js\'\n        ]\n    css_files = [\n        \'/static/css/base.css\',\n        \'/static/css/main.css\'\n        ]\n    return js_files, css_files\n\n(js_files, css_files) = get_urls()\n\nprod = True\n#@cache(request.env.path_info, time_expire=999999, cache_model=cache.ram)\ndef minify_prod():\n    #\n    # This function will be called for minimizing CSS and JS\n    # on production environment\n    #\n    logger.info("+----------- File minification")\n    global css_files\n    global js_files\n    compress = local_import(\'pack\')\n    OUTCSS = compress.process_css(css_files, request.folder)\n    #OUTJS = compress.process_js(js_files, app_name)\n    return OUTJS, OUTCSS\n\n#\n#\n#\nif prod==True:\n    (OUTJS, OUTCSS) = minify_prod()\n    css_files = [URL(\'static\', OUTCSS)]\n    js_files = [URL(\'static\', OUTJS)]\n\n'
p6
sS'snapshot'
p7
(dp8
S'exception'
p9
(dp10
S'__hash__'
p11
S"<method-wrapper '__hash__' of exceptions.NameError object>"
p12
sS'__setattr__'
p13
S"<method-wrapper '__setattr__' of exceptions.NameError object>"
p14
sS'__reduce_ex__'
p15
S'<built-in method __reduce_ex__ of exceptions.NameError object>'
p16
sS'__getslice__'
p17
S"<method-wrapper '__getslice__' of exceptions.NameError object>"
p18
sS'__getitem__'
p19
S"<method-wrapper '__getitem__' of exceptions.NameError object>"
p20
sS'__setstate__'
p21
S'<built-in method __setstate__ of exceptions.NameError object>'
p22
sS'args'
p23
S'("global name \'PATH\' is not defined",)'
p24
sS'__reduce__'
p25
S'<built-in method __reduce__ of exceptions.NameError object>'
p26
sS'__str__'
p27
S"<method-wrapper '__str__' of exceptions.NameError object>"
p28
sS'__format__'
p29
S'<built-in method __format__ of exceptions.NameError object>'
p30
sS'__getattribute__'
p31
S"<method-wrapper '__getattribute__' of exceptions.NameError object>"
p32
sS'__class__'
p33
S"<type 'exceptions.NameError'>"
p34
sS'__unicode__'
p35
S'<built-in method __unicode__ of exceptions.NameError object>'
p36
sS'__delattr__'
p37
S"<method-wrapper '__delattr__' of exceptions.NameError object>"
p38
sS'__subclasshook__'
p39
S'<built-in method __subclasshook__ of type object>'
p40
sS'__repr__'
p41
S"<method-wrapper '__repr__' of exceptions.NameError object>"
p42
sS'__dict__'
p43
S'{}'
p44
sS'__sizeof__'
p45
S'<built-in method __sizeof__ of exceptions.NameError object>'
p46
sS'__doc__'
p47
S"'Name not found globally.'"
p48
sS'__init__'
p49
S"<method-wrapper '__init__' of exceptions.NameError object>"
p50
sS'__new__'
p51
S'<built-in method __new__ of type object>'
p52
ssS'evalue'
p53
S"global name 'PATH' is not defined"
p54
sS'request'
p55
ccopy_reg
_reconstructor
p56
(cgluon.html
BEAUTIFY
p57
c__builtin__
object
p58
NtRp59
(dp60
S'attributes'
p61
(dp62
sS'components'
p63
(lp64
g56
(cgluon.html
TABLE
p65
g58
NtRp66
(dp67
g61
(dp68
S'level'
p69
I5
ssS'parent'
p70
Nsg63
(lp71
g56
(cgluon.html
TR
p72
g58
NtRp73
(dp74
g61
(dp75
sg70
g66
sg63
(lp76
g56
(cgluon.html
TD
p77
g58
NtRp78
(dp79
g61
(dp80
S'_style'
p81
S'font-weight:bold;'
p82
ssg70
g73
sg63
(lp83
S'ajax'
p84
asbag56
(g77
g58
NtRp85
(dp86
g61
(dp87
S'_valign'
p88
S'top'
p89
ssg70
g73
sg63
(lp90
S':'
asbag56
(g77
g58
NtRp91
(dp92
g61
(dp93
sg70
g73
sg63
(lp94
g56
(g57
g58
NtRp95
(dp96
g61
(dp97
g69
I5
ssg70
g91
sg63
(lp98
S'False'
p99
asbasbasbag56
(g72
g58
NtRp100
(dp101
g61
(dp102
sg70
g66
sg63
(lp103
g56
(g77
g58
NtRp104
(dp105
g61
(dp106
g81
g82
ssg70
g100
sg63
(lp107
S'application'
p108
asbag56
(g77
g58
NtRp109
(dp110
g61
(dp111
g88
g89
ssg70
g100
sg63
(lp112
S':'
asbag56
(g77
g58
NtRp113
(dp114
g61
(dp115
sg70
g100
sg63
(lp116
g56
(g57
g58
NtRp117
(dp118
g61
(dp119
g69
I5
ssg70
g113
sg63
(lp120
S'bench'
p121
asbasbasbag56
(g72
g58
NtRp122
(dp123
g61
(dp124
sg70
g66
sg63
(lp125
g56
(g77
g58
NtRp126
(dp127
g61
(dp128
g81
g82
ssg70
g122
sg63
(lp129
g23
asbag56
(g77
g58
NtRp130
(dp131
g61
(dp132
g88
g89
ssg70
g122
sg63
(lp133
S':'
asbag56
(g77
g58
NtRp134
(dp135
g61
(dp136
sg70
g122
sg63
(lp137
g56
(g57
g58
NtRp138
(dp139
g61
(dp140
g69
I5
ssg70
g134
sg63
(lp141
g56
(g65
g58
NtRp142
(dp143
g61
(dp144
g69
I4
ssg70
Nsg63
(lp145
sbasbasbasbag56
(g72
g58
NtRp146
(dp147
g61
(dp148
sg70
g66
sg63
(lp149
g56
(g77
g58
NtRp150
(dp151
g61
(dp152
g81
g82
ssg70
g146
sg63
(lp153
S'body'
p154
asbag56
(g77
g58
NtRp155
(dp156
g61
(dp157
g88
g89
ssg70
g146
sg63
(lp158
S':'
asbag56
(g77
g58
NtRp159
(dp160
g61
(dp161
sg70
g146
sg63
(lp162
g56
(g57
g58
NtRp163
(dp164
g61
(dp165
g69
I5
ssg70
g159
sg63
(lp166
S'<cStringIO.StringO object at 0x1cb7730>'
p167
asbasbasbag56
(g72
g58
NtRp168
(dp169
g61
(dp170
sg70
g66
sg63
(lp171
g56
(g77
g58
NtRp172
(dp173
g61
(dp174
g81
g82
ssg70
g168
sg63
(lp175
S'client'
p176
asbag56
(g77
g58
NtRp177
(dp178
g61
(dp179
g88
g89
ssg70
g168
sg63
(lp180
S':'
asbag56
(g77
g58
NtRp181
(dp182
g61
(dp183
sg70
g168
sg63
(lp184
g56
(g57
g58
NtRp185
(dp186
g61
(dp187
g69
I5
ssg70
g181
sg63
(lp188
S'127.0.0.1'
p189
asbasbasbag56
(g72
g58
NtRp190
(dp191
g61
(dp192
sg70
g66
sg63
(lp193
g56
(g77
g58
NtRp194
(dp195
g61
(dp196
g81
g82
ssg70
g190
sg63
(lp197
S'controller'
p198
asbag56
(g77
g58
NtRp199
(dp200
g61
(dp201
g88
g89
ssg70
g190
sg63
(lp202
S':'
asbag56
(g77
g58
NtRp203
(dp204
g61
(dp205
sg70
g190
sg63
(lp206
g56
(g57
g58
NtRp207
(dp208
g61
(dp209
g69
I5
ssg70
g203
sg63
(lp210
S'default'
p211
asbasbasbag56
(g72
g58
NtRp212
(dp213
g61
(dp214
sg70
g66
sg63
(lp215
g56
(g77
g58
NtRp216
(dp217
g61
(dp218
g81
g82
ssg70
g212
sg63
(lp219
S'cookies'
p220
asbag56
(g77
g58
NtRp221
(dp222
g61
(dp223
g88
g89
ssg70
g212
sg63
(lp224
S':'
asbag56
(g77
g58
NtRp225
(dp226
g61
(dp227
sg70
g212
sg63
(lp228
g56
(g57
g58
NtRp229
(dp230
g61
(dp231
g69
I5
ssg70
g225
sg63
(lp232
g56
(g65
g58
NtRp233
(dp234
g61
(dp235
g69
I4
ssg70
Nsg63
(lp236
g56
(g72
g58
NtRp237
(dp238
g61
(dp239
sg70
g233
sg63
(lp240
g56
(g77
g58
NtRp241
(dp242
g61
(dp243
g81
g82
ssg70
g237
sg63
(lp244
S'csrftoken'
p245
asbag56
(g77
g58
NtRp246
(dp247
g61
(dp248
g88
g89
ssg70
g237
sg63
(lp249
S':'
asbag56
(g77
g58
NtRp250
(dp251
g61
(dp252
sg70
g237
sg63
(lp253
g56
(g57
g58
NtRp254
(dp255
g61
(dp256
g69
I4
ssg70
g250
sg63
(lp257
g56
(g65
g58
NtRp258
(dp259
g61
(dp260
g69
I3
ssg70
Nsg63
(lp261
g56
(g72
g58
NtRp262
(dp263
g61
(dp264
sg70
g258
sg63
(lp265
g56
(g77
g58
NtRp266
(dp267
g61
(dp268
g81
g82
ssg70
g262
sg63
(lp269
S'comment'
p270
asbag56
(g77
g58
NtRp271
(dp272
g61
(dp273
g88
g89
ssg70
g262
sg63
(lp274
S':'
asbag56
(g77
g58
NtRp275
(dp276
g61
(dp277
sg70
g262
sg63
(lp278
g56
(g57
g58
NtRp279
(dp280
g61
(dp281
g69
I3
ssg70
g275
sg63
(lp282
S''
asbasbasbag56
(g72
g58
NtRp283
(dp284
g61
(dp285
sg70
g258
sg63
(lp286
g56
(g77
g58
NtRp287
(dp288
g61
(dp289
g81
g82
ssg70
g283
sg63
(lp290
S'domain'
p291
asbag56
(g77
g58
NtRp292
(dp293
g61
(dp294
g88
g89
ssg70
g283
sg63
(lp295
S':'
asbag56
(g77
g58
NtRp296
(dp297
g61
(dp298
sg70
g283
sg63
(lp299
g56
(g57
g58
NtRp300
(dp301
g61
(dp302
g69
I3
ssg70
g296
sg63
(lp303
S''
asbasbasbag56
(g72
g58
NtRp304
(dp305
g61
(dp306
sg70
g258
sg63
(lp307
g56
(g77
g58
NtRp308
(dp309
g61
(dp310
g81
g82
ssg70
g304
sg63
(lp311
S'expires'
p312
asbag56
(g77
g58
NtRp313
(dp314
g61
(dp315
g88
g89
ssg70
g304
sg63
(lp316
S':'
asbag56
(g77
g58
NtRp317
(dp318
g61
(dp319
sg70
g304
sg63
(lp320
g56
(g57
g58
NtRp321
(dp322
g61
(dp323
g69
I3
ssg70
g317
sg63
(lp324
S''
asbasbasbag56
(g72
g58
NtRp325
(dp326
g61
(dp327
sg70
g258
sg63
(lp328
g56
(g77
g58
NtRp329
(dp330
g61
(dp331
g81
g82
ssg70
g325
sg63
(lp332
S'httponly'
p333
asbag56
(g77
g58
NtRp334
(dp335
g61
(dp336
g88
g89
ssg70
g325
sg63
(lp337
S':'
asbag56
(g77
g58
NtRp338
(dp339
g61
(dp340
sg70
g325
sg63
(lp341
g56
(g57
g58
NtRp342
(dp343
g61
(dp344
g69
I3
ssg70
g338
sg63
(lp345
S''
asbasbasbag56
(g72
g58
NtRp346
(dp347
g61
(dp348
sg70
g258
sg63
(lp349
g56
(g77
g58
NtRp350
(dp351
g61
(dp352
g81
g82
ssg70
g346
sg63
(lp353
S'max-age'
p354
asbag56
(g77
g58
NtRp355
(dp356
g61
(dp357
g88
g89
ssg70
g346
sg63
(lp358
S':'
asbag56
(g77
g58
NtRp359
(dp360
g61
(dp361
sg70
g346
sg63
(lp362
g56
(g57
g58
NtRp363
(dp364
g61
(dp365
g69
I3
ssg70
g359
sg63
(lp366
S''
asbasbasbag56
(g72
g58
NtRp367
(dp368
g61
(dp369
sg70
g258
sg63
(lp370
g56
(g77
g58
NtRp371
(dp372
g61
(dp373
g81
g82
ssg70
g367
sg63
(lp374
S'path'
p375
asbag56
(g77
g58
NtRp376
(dp377
g61
(dp378
g88
g89
ssg70
g367
sg63
(lp379
S':'
asbag56
(g77
g58
NtRp380
(dp381
g61
(dp382
sg70
g367
sg63
(lp383
g56
(g57
g58
NtRp384
(dp385
g61
(dp386
g69
I3
ssg70
g380
sg63
(lp387
S''
asbasbasbag56
(g72
g58
NtRp388
(dp389
g61
(dp390
sg70
g258
sg63
(lp391
g56
(g77
g58
NtRp392
(dp393
g61
(dp394
g81
g82
ssg70
g388
sg63
(lp395
S'secure'
p396
asbag56
(g77
g58
NtRp397
(dp398
g61
(dp399
g88
g89
ssg70
g388
sg63
(lp400
S':'
asbag56
(g77
g58
NtRp401
(dp402
g61
(dp403
sg70
g388
sg63
(lp404
g56
(g57
g58
NtRp405
(dp406
g61
(dp407
g69
I3
ssg70
g401
sg63
(lp408
S''
asbasbasbag56
(g72
g58
NtRp409
(dp410
g61
(dp411
sg70
g258
sg63
(lp412
g56
(g77
g58
NtRp413
(dp414
g61
(dp415
g81
g82
ssg70
g409
sg63
(lp416
S'version'
p417
asbag56
(g77
g58
NtRp418
(dp419
g61
(dp420
g88
g89
ssg70
g409
sg63
(lp421
S':'
asbag56
(g77
g58
NtRp422
(dp423
g61
(dp424
sg70
g409
sg63
(lp425
g56
(g57
g58
NtRp426
(dp427
g61
(dp428
g69
I3
ssg70
g422
sg63
(lp429
S''
asbasbasbasbasbasbasbag56
(g72
g58
NtRp430
(dp431
g61
(dp432
sg70
g233
sg63
(lp433
g56
(g77
g58
NtRp434
(dp435
g61
(dp436
g81
g82
ssg70
g430
sg63
(lp437
S'lbk'
p438
asbag56
(g77
g58
NtRp439
(dp440
g61
(dp441
g88
g89
ssg70
g430
sg63
(lp442
S':'
asbag56
(g77
g58
NtRp443
(dp444
g61
(dp445
sg70
g430
sg63
(lp446
g56
(g57
g58
NtRp447
(dp448
g61
(dp449
g69
I4
ssg70
g443
sg63
(lp450
g56
(g65
g58
NtRp451
(dp452
g61
(dp453
g69
I3
ssg70
Nsg63
(lp454
g56
(g72
g58
NtRp455
(dp456
g61
(dp457
sg70
g451
sg63
(lp458
g56
(g77
g58
NtRp459
(dp460
g61
(dp461
g81
g82
ssg70
g455
sg63
(lp462
g270
asbag56
(g77
g58
NtRp463
(dp464
g61
(dp465
g88
g89
ssg70
g455
sg63
(lp466
S':'
asbag56
(g77
g58
NtRp467
(dp468
g61
(dp469
sg70
g455
sg63
(lp470
g56
(g57
g58
NtRp471
(dp472
g61
(dp473
g69
I3
ssg70
g467
sg63
(lp474
S''
asbasbasbag56
(g72
g58
NtRp475
(dp476
g61
(dp477
sg70
g451
sg63
(lp478
g56
(g77
g58
NtRp479
(dp480
g61
(dp481
g81
g82
ssg70
g475
sg63
(lp482
g291
asbag56
(g77
g58
NtRp483
(dp484
g61
(dp485
g88
g89
ssg70
g475
sg63
(lp486
S':'
asbag56
(g77
g58
NtRp487
(dp488
g61
(dp489
sg70
g475
sg63
(lp490
g56
(g57
g58
NtRp491
(dp492
g61
(dp493
g69
I3
ssg70
g487
sg63
(lp494
S''
asbasbasbag56
(g72
g58
NtRp495
(dp496
g61
(dp497
sg70
g451
sg63
(lp498
g56
(g77
g58
NtRp499
(dp500
g61
(dp501
g81
g82
ssg70
g495
sg63
(lp502
g312
asbag56
(g77
g58
NtRp503
(dp504
g61
(dp505
g88
g89
ssg70
g495
sg63
(lp506
S':'
asbag56
(g77
g58
NtRp507
(dp508
g61
(dp509
sg70
g495
sg63
(lp510
g56
(g57
g58
NtRp511
(dp512
g61
(dp513
g69
I3
ssg70
g507
sg63
(lp514
S''
asbasbasbag56
(g72
g58
NtRp515
(dp516
g61
(dp517
sg70
g451
sg63
(lp518
g56
(g77
g58
NtRp519
(dp520
g61
(dp521
g81
g82
ssg70
g515
sg63
(lp522
g333
asbag56
(g77
g58
NtRp523
(dp524
g61
(dp525
g88
g89
ssg70
g515
sg63
(lp526
S':'
asbag56
(g77
g58
NtRp527
(dp528
g61
(dp529
sg70
g515
sg63
(lp530
g56
(g57
g58
NtRp531
(dp532
g61
(dp533
g69
I3
ssg70
g527
sg63
(lp534
S''
asbasbasbag56
(g72
g58
NtRp535
(dp536
g61
(dp537
sg70
g451
sg63
(lp538
g56
(g77
g58
NtRp539
(dp540
g61
(dp541
g81
g82
ssg70
g535
sg63
(lp542
g354
asbag56
(g77
g58
NtRp543
(dp544
g61
(dp545
g88
g89
ssg70
g535
sg63
(lp546
S':'
asbag56
(g77
g58
NtRp547
(dp548
g61
(dp549
sg70
g535
sg63
(lp550
g56
(g57
g58
NtRp551
(dp552
g61
(dp553
g69
I3
ssg70
g547
sg63
(lp554
S''
asbasbasbag56
(g72
g58
NtRp555
(dp556
g61
(dp557
sg70
g451
sg63
(lp558
g56
(g77
g58
NtRp559
(dp560
g61
(dp561
g81
g82
ssg70
g555
sg63
(lp562
g375
asbag56
(g77
g58
NtRp563
(dp564
g61
(dp565
g88
g89
ssg70
g555
sg63
(lp566
S':'
asbag56
(g77
g58
NtRp567
(dp568
g61
(dp569
sg70
g555
sg63
(lp570
g56
(g57
g58
NtRp571
(dp572
g61
(dp573
g69
I3
ssg70
g567
sg63
(lp574
S''
asbasbasbag56
(g72
g58
NtRp575
(dp576
g61
(dp577
sg70
g451
sg63
(lp578
g56
(g77
g58
NtRp579
(dp580
g61
(dp581
g81
g82
ssg70
g575
sg63
(lp582
g396
asbag56
(g77
g58
NtRp583
(dp584
g61
(dp585
g88
g89
ssg70
g575
sg63
(lp586
S':'
asbag56
(g77
g58
NtRp587
(dp588
g61
(dp589
sg70
g575
sg63
(lp590
g56
(g57
g58
NtRp591
(dp592
g61
(dp593
g69
I3
ssg70
g587
sg63
(lp594
S''
asbasbasbag56
(g72
g58
NtRp595
(dp596
g61
(dp597
sg70
g451
sg63
(lp598
g56
(g77
g58
NtRp599
(dp600
g61
(dp601
g81
g82
ssg70
g595
sg63
(lp602
g417
asbag56
(g77
g58
NtRp603
(dp604
g61
(dp605
g88
g89
ssg70
g595
sg63
(lp606
S':'
asbag56
(g77
g58
NtRp607
(dp608
g61
(dp609
sg70
g595
sg63
(lp610
g56
(g57
g58
NtRp611
(dp612
g61
(dp613
g69
I3
ssg70
g607
sg63
(lp614
S''
asbasbasbasbasbasbasbag56
(g72
g58
NtRp615
(dp616
g61
(dp617
sg70
g233
sg63
(lp618
g56
(g77
g58
NtRp619
(dp620
g61
(dp621
g81
g82
ssg70
g615
sg63
(lp622
S'session_id_admin'
p623
asbag56
(g77
g58
NtRp624
(dp625
g61
(dp626
g88
g89
ssg70
g615
sg63
(lp627
S':'
asbag56
(g77
g58
NtRp628
(dp629
g61
(dp630
sg70
g615
sg63
(lp631
g56
(g57
g58
NtRp632
(dp633
g61
(dp634
g69
I4
ssg70
g628
sg63
(lp635
g56
(g65
g58
NtRp636
(dp637
g61
(dp638
g69
I3
ssg70
Nsg63
(lp639
g56
(g72
g58
NtRp640
(dp641
g61
(dp642
sg70
g636
sg63
(lp643
g56
(g77
g58
NtRp644
(dp645
g61
(dp646
g81
g82
ssg70
g640
sg63
(lp647
g270
asbag56
(g77
g58
NtRp648
(dp649
g61
(dp650
g88
g89
ssg70
g640
sg63
(lp651
S':'
asbag56
(g77
g58
NtRp652
(dp653
g61
(dp654
sg70
g640
sg63
(lp655
g56
(g57
g58
NtRp656
(dp657
g61
(dp658
g69
I3
ssg70
g652
sg63
(lp659
S''
asbasbasbag56
(g72
g58
NtRp660
(dp661
g61
(dp662
sg70
g636
sg63
(lp663
g56
(g77
g58
NtRp664
(dp665
g61
(dp666
g81
g82
ssg70
g660
sg63
(lp667
g291
asbag56
(g77
g58
NtRp668
(dp669
g61
(dp670
g88
g89
ssg70
g660
sg63
(lp671
S':'
asbag56
(g77
g58
NtRp672
(dp673
g61
(dp674
sg70
g660
sg63
(lp675
g56
(g57
g58
NtRp676
(dp677
g61
(dp678
g69
I3
ssg70
g672
sg63
(lp679
S''
asbasbasbag56
(g72
g58
NtRp680
(dp681
g61
(dp682
sg70
g636
sg63
(lp683
g56
(g77
g58
NtRp684
(dp685
g61
(dp686
g81
g82
ssg70
g680
sg63
(lp687
g312
asbag56
(g77
g58
NtRp688
(dp689
g61
(dp690
g88
g89
ssg70
g680
sg63
(lp691
S':'
asbag56
(g77
g58
NtRp692
(dp693
g61
(dp694
sg70
g680
sg63
(lp695
g56
(g57
g58
NtRp696
(dp697
g61
(dp698
g69
I3
ssg70
g692
sg63
(lp699
S''
asbasbasbag56
(g72
g58
NtRp700
(dp701
g61
(dp702
sg70
g636
sg63
(lp703
g56
(g77
g58
NtRp704
(dp705
g61
(dp706
g81
g82
ssg70
g700
sg63
(lp707
g333
asbag56
(g77
g58
NtRp708
(dp709
g61
(dp710
g88
g89
ssg70
g700
sg63
(lp711
S':'
asbag56
(g77
g58
NtRp712
(dp713
g61
(dp714
sg70
g700
sg63
(lp715
g56
(g57
g58
NtRp716
(dp717
g61
(dp718
g69
I3
ssg70
g712
sg63
(lp719
S''
asbasbasbag56
(g72
g58
NtRp720
(dp721
g61
(dp722
sg70
g636
sg63
(lp723
g56
(g77
g58
NtRp724
(dp725
g61
(dp726
g81
g82
ssg70
g720
sg63
(lp727
g354
asbag56
(g77
g58
NtRp728
(dp729
g61
(dp730
g88
g89
ssg70
g720
sg63
(lp731
S':'
asbag56
(g77
g58
NtRp732
(dp733
g61
(dp734
sg70
g720
sg63
(lp735
g56
(g57
g58
NtRp736
(dp737
g61
(dp738
g69
I3
ssg70
g732
sg63
(lp739
S''
asbasbasbag56
(g72
g58
NtRp740
(dp741
g61
(dp742
sg70
g636
sg63
(lp743
g56
(g77
g58
NtRp744
(dp745
g61
(dp746
g81
g82
ssg70
g740
sg63
(lp747
g375
asbag56
(g77
g58
NtRp748
(dp749
g61
(dp750
g88
g89
ssg70
g740
sg63
(lp751
S':'
asbag56
(g77
g58
NtRp752
(dp753
g61
(dp754
sg70
g740
sg63
(lp755
g56
(g57
g58
NtRp756
(dp757
g61
(dp758
g69
I3
ssg70
g752
sg63
(lp759
S''
asbasbasbag56
(g72
g58
NtRp760
(dp761
g61
(dp762
sg70
g636
sg63
(lp763
g56
(g77
g58
NtRp764
(dp765
g61
(dp766
g81
g82
ssg70
g760
sg63
(lp767
g396
asbag56
(g77
g58
NtRp768
(dp769
g61
(dp770
g88
g89
ssg70
g760
sg63
(lp771
S':'
asbag56
(g77
g58
NtRp772
(dp773
g61
(dp774
sg70
g760
sg63
(lp775
g56
(g57
g58
NtRp776
(dp777
g61
(dp778
g69
I3
ssg70
g772
sg63
(lp779
S''
asbasbasbag56
(g72
g58
NtRp780
(dp781
g61
(dp782
sg70
g636
sg63
(lp783
g56
(g77
g58
NtRp784
(dp785
g61
(dp786
g81
g82
ssg70
g780
sg63
(lp787
g417
asbag56
(g77
g58
NtRp788
(dp789
g61
(dp790
g88
g89
ssg70
g780
sg63
(lp791
S':'
asbag56
(g77
g58
NtRp792
(dp793
g61
(dp794
sg70
g780
sg63
(lp795
g56
(g57
g58
NtRp796
(dp797
g61
(dp798
g69
I3
ssg70
g792
sg63
(lp799
S''
asbasbasbasbasbasbasbag56
(g72
g58
NtRp800
(dp801
g61
(dp802
sg70
g233
sg63
(lp803
g56
(g77
g58
NtRp804
(dp805
g61
(dp806
g81
g82
ssg70
g800
sg63
(lp807
S'session_id_bench'
p808
asbag56
(g77
g58
NtRp809
(dp810
g61
(dp811
g88
g89
ssg70
g800
sg63
(lp812
S':'
asbag56
(g77
g58
NtRp813
(dp814
g61
(dp815
sg70
g800
sg63
(lp816
g56
(g57
g58
NtRp817
(dp818
g61
(dp819
g69
I4
ssg70
g813
sg63
(lp820
g56
(g65
g58
NtRp821
(dp822
g61
(dp823
g69
I3
ssg70
Nsg63
(lp824
g56
(g72
g58
NtRp825
(dp826
g61
(dp827
sg70
g821
sg63
(lp828
g56
(g77
g58
NtRp829
(dp830
g61
(dp831
g81
g82
ssg70
g825
sg63
(lp832
g270
asbag56
(g77
g58
NtRp833
(dp834
g61
(dp835
g88
g89
ssg70
g825
sg63
(lp836
S':'
asbag56
(g77
g58
NtRp837
(dp838
g61
(dp839
sg70
g825
sg63
(lp840
g56
(g57
g58
NtRp841
(dp842
g61
(dp843
g69
I3
ssg70
g837
sg63
(lp844
S''
asbasbasbag56
(g72
g58
NtRp845
(dp846
g61
(dp847
sg70
g821
sg63
(lp848
g56
(g77
g58
NtRp849
(dp850
g61
(dp851
g81
g82
ssg70
g845
sg63
(lp852
g291
asbag56
(g77
g58
NtRp853
(dp854
g61
(dp855
g88
g89
ssg70
g845
sg63
(lp856
S':'
asbag56
(g77
g58
NtRp857
(dp858
g61
(dp859
sg70
g845
sg63
(lp860
g56
(g57
g58
NtRp861
(dp862
g61
(dp863
g69
I3
ssg70
g857
sg63
(lp864
S''
asbasbasbag56
(g72
g58
NtRp865
(dp866
g61
(dp867
sg70
g821
sg63
(lp868
g56
(g77
g58
NtRp869
(dp870
g61
(dp871
g81
g82
ssg70
g865
sg63
(lp872
g312
asbag56
(g77
g58
NtRp873
(dp874
g61
(dp875
g88
g89
ssg70
g865
sg63
(lp876
S':'
asbag56
(g77
g58
NtRp877
(dp878
g61
(dp879
sg70
g865
sg63
(lp880
g56
(g57
g58
NtRp881
(dp882
g61
(dp883
g69
I3
ssg70
g877
sg63
(lp884
S''
asbasbasbag56
(g72
g58
NtRp885
(dp886
g61
(dp887
sg70
g821
sg63
(lp888
g56
(g77
g58
NtRp889
(dp890
g61
(dp891
g81
g82
ssg70
g885
sg63
(lp892
g333
asbag56
(g77
g58
NtRp893
(dp894
g61
(dp895
g88
g89
ssg70
g885
sg63
(lp896
S':'
asbag56
(g77
g58
NtRp897
(dp898
g61
(dp899
sg70
g885
sg63
(lp900
g56
(g57
g58
NtRp901
(dp902
g61
(dp903
g69
I3
ssg70
g897
sg63
(lp904
S''
asbasbasbag56
(g72
g58
NtRp905
(dp906
g61
(dp907
sg70
g821
sg63
(lp908
g56
(g77
g58
NtRp909
(dp910
g61
(dp911
g81
g82
ssg70
g905
sg63
(lp912
g354
asbag56
(g77
g58
NtRp913
(dp914
g61
(dp915
g88
g89
ssg70
g905
sg63
(lp916
S':'
asbag56
(g77
g58
NtRp917
(dp918
g61
(dp919
sg70
g905
sg63
(lp920
g56
(g57
g58
NtRp921
(dp922
g61
(dp923
g69
I3
ssg70
g917
sg63
(lp924
S''
asbasbasbag56
(g72
g58
NtRp925
(dp926
g61
(dp927
sg70
g821
sg63
(lp928
g56
(g77
g58
NtRp929
(dp930
g61
(dp931
g81
g82
ssg70
g925
sg63
(lp932
g375
asbag56
(g77
g58
NtRp933
(dp934
g61
(dp935
g88
g89
ssg70
g925
sg63
(lp936
S':'
asbag56
(g77
g58
NtRp937
(dp938
g61
(dp939
sg70
g925
sg63
(lp940
g56
(g57
g58
NtRp941
(dp942
g61
(dp943
g69
I3
ssg70
g937
sg63
(lp944
S''
asbasbasbag56
(g72
g58
NtRp945
(dp946
g61
(dp947
sg70
g821
sg63
(lp948
g56
(g77
g58
NtRp949
(dp950
g61
(dp951
g81
g82
ssg70
g945
sg63
(lp952
g396
asbag56
(g77
g58
NtRp953
(dp954
g61
(dp955
g88
g89
ssg70
g945
sg63
(lp956
S':'
asbag56
(g77
g58
NtRp957
(dp958
g61
(dp959
sg70
g945
sg63
(lp960
g56
(g57
g58
NtRp961
(dp962
g61
(dp963
g69
I3
ssg70
g957
sg63
(lp964
S''
asbasbasbag56
(g72
g58
NtRp965
(dp966
g61
(dp967
sg70
g821
sg63
(lp968
g56
(g77
g58
NtRp969
(dp970
g61
(dp971
g81
g82
ssg70
g965
sg63
(lp972
g417
asbag56
(g77
g58
NtRp973
(dp974
g61
(dp975
g88
g89
ssg70
g965
sg63
(lp976
S':'
asbag56
(g77
g58
NtRp977
(dp978
g61
(dp979
sg70
g965
sg63
(lp980
g56
(g57
g58
NtRp981
(dp982
g61
(dp983
g69
I3
ssg70
g977
sg63
(lp984
S''
asbasbasbasbasbasbasbag56
(g72
g58
NtRp985
(dp986
g61
(dp987
sg70
g233
sg63
(lp988
g56
(g77
g58
NtRp989
(dp990
g61
(dp991
g81
g82
ssg70
g985
sg63
(lp992
S'session_id_shamebook'
p993
asbag56
(g77
g58
NtRp994
(dp995
g61
(dp996
g88
g89
ssg70
g985
sg63
(lp997
S':'
asbag56
(g77
g58
NtRp998
(dp999
g61
(dp1000
sg70
g985
sg63
(lp1001
g56
(g57
g58
NtRp1002
(dp1003
g61
(dp1004
g69
I4
ssg70
g998
sg63
(lp1005
g56
(g65
g58
NtRp1006
(dp1007
g61
(dp1008
g69
I3
ssg70
Nsg63
(lp1009
g56
(g72
g58
NtRp1010
(dp1011
g61
(dp1012
sg70
g1006
sg63
(lp1013
g56
(g77
g58
NtRp1014
(dp1015
g61
(dp1016
g81
g82
ssg70
g1010
sg63
(lp1017
g270
asbag56
(g77
g58
NtRp1018
(dp1019
g61
(dp1020
g88
g89
ssg70
g1010
sg63
(lp1021
S':'
asbag56
(g77
g58
NtRp1022
(dp1023
g61
(dp1024
sg70
g1010
sg63
(lp1025
g56
(g57
g58
NtRp1026
(dp1027
g61
(dp1028
g69
I3
ssg70
g1022
sg63
(lp1029
S''
asbasbasbag56
(g72
g58
NtRp1030
(dp1031
g61
(dp1032
sg70
g1006
sg63
(lp1033
g56
(g77
g58
NtRp1034
(dp1035
g61
(dp1036
g81
g82
ssg70
g1030
sg63
(lp1037
g291
asbag56
(g77
g58
NtRp1038
(dp1039
g61
(dp1040
g88
g89
ssg70
g1030
sg63
(lp1041
S':'
asbag56
(g77
g58
NtRp1042
(dp1043
g61
(dp1044
sg70
g1030
sg63
(lp1045
g56
(g57
g58
NtRp1046
(dp1047
g61
(dp1048
g69
I3
ssg70
g1042
sg63
(lp1049
S''
asbasbasbag56
(g72
g58
NtRp1050
(dp1051
g61
(dp1052
sg70
g1006
sg63
(lp1053
g56
(g77
g58
NtRp1054
(dp1055
g61
(dp1056
g81
g82
ssg70
g1050
sg63
(lp1057
g312
asbag56
(g77
g58
NtRp1058
(dp1059
g61
(dp1060
g88
g89
ssg70
g1050
sg63
(lp1061
S':'
asbag56
(g77
g58
NtRp1062
(dp1063
g61
(dp1064
sg70
g1050
sg63
(lp1065
g56
(g57
g58
NtRp1066
(dp1067
g61
(dp1068
g69
I3
ssg70
g1062
sg63
(lp1069
S''
asbasbasbag56
(g72
g58
NtRp1070
(dp1071
g61
(dp1072
sg70
g1006
sg63
(lp1073
g56
(g77
g58
NtRp1074
(dp1075
g61
(dp1076
g81
g82
ssg70
g1070
sg63
(lp1077
g333
asbag56
(g77
g58
NtRp1078
(dp1079
g61
(dp1080
g88
g89
ssg70
g1070
sg63
(lp1081
S':'
asbag56
(g77
g58
NtRp1082
(dp1083
g61
(dp1084
sg70
g1070
sg63
(lp1085
g56
(g57
g58
NtRp1086
(dp1087
g61
(dp1088
g69
I3
ssg70
g1082
sg63
(lp1089
S''
asbasbasbag56
(g72
g58
NtRp1090
(dp1091
g61
(dp1092
sg70
g1006
sg63
(lp1093
g56
(g77
g58
NtRp1094
(dp1095
g61
(dp1096
g81
g82
ssg70
g1090
sg63
(lp1097
g354
asbag56
(g77
g58
NtRp1098
(dp1099
g61
(dp1100
g88
g89
ssg70
g1090
sg63
(lp1101
S':'
asbag56
(g77
g58
NtRp1102
(dp1103
g61
(dp1104
sg70
g1090
sg63
(lp1105
g56
(g57
g58
NtRp1106
(dp1107
g61
(dp1108
g69
I3
ssg70
g1102
sg63
(lp1109
S''
asbasbasbag56
(g72
g58
NtRp1110
(dp1111
g61
(dp1112
sg70
g1006
sg63
(lp1113
g56
(g77
g58
NtRp1114
(dp1115
g61
(dp1116
g81
g82
ssg70
g1110
sg63
(lp1117
g375
asbag56
(g77
g58
NtRp1118
(dp1119
g61
(dp1120
g88
g89
ssg70
g1110
sg63
(lp1121
S':'
asbag56
(g77
g58
NtRp1122
(dp1123
g61
(dp1124
sg70
g1110
sg63
(lp1125
g56
(g57
g58
NtRp1126
(dp1127
g61
(dp1128
g69
I3
ssg70
g1122
sg63
(lp1129
S''
asbasbasbag56
(g72
g58
NtRp1130
(dp1131
g61
(dp1132
sg70
g1006
sg63
(lp1133
g56
(g77
g58
NtRp1134
(dp1135
g61
(dp1136
g81
g82
ssg70
g1130
sg63
(lp1137
g396
asbag56
(g77
g58
NtRp1138
(dp1139
g61
(dp1140
g88
g89
ssg70
g1130
sg63
(lp1141
S':'
asbag56
(g77
g58
NtRp1142
(dp1143
g61
(dp1144
sg70
g1130
sg63
(lp1145
g56
(g57
g58
NtRp1146
(dp1147
g61
(dp1148
g69
I3
ssg70
g1142
sg63
(lp1149
S''
asbasbasbag56
(g72
g58
NtRp1150
(dp1151
g61
(dp1152
sg70
g1006
sg63
(lp1153
g56
(g77
g58
NtRp1154
(dp1155
g61
(dp1156
g81
g82
ssg70
g1150
sg63
(lp1157
g417
asbag56
(g77
g58
NtRp1158
(dp1159
g61
(dp1160
g88
g89
ssg70
g1150
sg63
(lp1161
S':'
asbag56
(g77
g58
NtRp1162
(dp1163
g61
(dp1164
sg70
g1150
sg63
(lp1165
g56
(g57
g58
NtRp1166
(dp1167
g61
(dp1168
g69
I3
ssg70
g1162
sg63
(lp1169
S''
asbasbasbasbasbasbasbag56
(g72
g58
NtRp1170
(dp1171
g61
(dp1172
sg70
g233
sg63
(lp1173
g56
(g77
g58
NtRp1174
(dp1175
g61
(dp1176
g81
g82
ssg70
g1170
sg63
(lp1177
S'session_id_welcome'
p1178
asbag56
(g77
g58
NtRp1179
(dp1180
g61
(dp1181
g88
g89
ssg70
g1170
sg63
(lp1182
S':'
asbag56
(g77
g58
NtRp1183
(dp1184
g61
(dp1185
sg70
g1170
sg63
(lp1186
g56
(g57
g58
NtRp1187
(dp1188
g61
(dp1189
g69
I4
ssg70
g1183
sg63
(lp1190
g56
(g65
g58
NtRp1191
(dp1192
g61
(dp1193
g69
I3
ssg70
Nsg63
(lp1194
g56
(g72
g58
NtRp1195
(dp1196
g61
(dp1197
sg70
g1191
sg63
(lp1198
g56
(g77
g58
NtRp1199
(dp1200
g61
(dp1201
g81
g82
ssg70
g1195
sg63
(lp1202
g270
asbag56
(g77
g58
NtRp1203
(dp1204
g61
(dp1205
g88
g89
ssg70
g1195
sg63
(lp1206
S':'
asbag56
(g77
g58
NtRp1207
(dp1208
g61
(dp1209
sg70
g1195
sg63
(lp1210
g56
(g57
g58
NtRp1211
(dp1212
g61
(dp1213
g69
I3
ssg70
g1207
sg63
(lp1214
S''
asbasbasbag56
(g72
g58
NtRp1215
(dp1216
g61
(dp1217
sg70
g1191
sg63
(lp1218
g56
(g77
g58
NtRp1219
(dp1220
g61
(dp1221
g81
g82
ssg70
g1215
sg63
(lp1222
g291
asbag56
(g77
g58
NtRp1223
(dp1224
g61
(dp1225
g88
g89
ssg70
g1215
sg63
(lp1226
S':'
asbag56
(g77
g58
NtRp1227
(dp1228
g61
(dp1229
sg70
g1215
sg63
(lp1230
g56
(g57
g58
NtRp1231
(dp1232
g61
(dp1233
g69
I3
ssg70
g1227
sg63
(lp1234
S''
asbasbasbag56
(g72
g58
NtRp1235
(dp1236
g61
(dp1237
sg70
g1191
sg63
(lp1238
g56
(g77
g58
NtRp1239
(dp1240
g61
(dp1241
g81
g82
ssg70
g1235
sg63
(lp1242
g312
asbag56
(g77
g58
NtRp1243
(dp1244
g61
(dp1245
g88
g89
ssg70
g1235
sg63
(lp1246
S':'
asbag56
(g77
g58
NtRp1247
(dp1248
g61
(dp1249
sg70
g1235
sg63
(lp1250
g56
(g57
g58
NtRp1251
(dp1252
g61
(dp1253
g69
I3
ssg70
g1247
sg63
(lp1254
S''
asbasbasbag56
(g72
g58
NtRp1255
(dp1256
g61
(dp1257
sg70
g1191
sg63
(lp1258
g56
(g77
g58
NtRp1259
(dp1260
g61
(dp1261
g81
g82
ssg70
g1255
sg63
(lp1262
g333
asbag56
(g77
g58
NtRp1263
(dp1264
g61
(dp1265
g88
g89
ssg70
g1255
sg63
(lp1266
S':'
asbag56
(g77
g58
NtRp1267
(dp1268
g61
(dp1269
sg70
g1255
sg63
(lp1270
g56
(g57
g58
NtRp1271
(dp1272
g61
(dp1273
g69
I3
ssg70
g1267
sg63
(lp1274
S''
asbasbasbag56
(g72
g58
NtRp1275
(dp1276
g61
(dp1277
sg70
g1191
sg63
(lp1278
g56
(g77
g58
NtRp1279
(dp1280
g61
(dp1281
g81
g82
ssg70
g1275
sg63
(lp1282
g354
asbag56
(g77
g58
NtRp1283
(dp1284
g61
(dp1285
g88
g89
ssg70
g1275
sg63
(lp1286
S':'
asbag56
(g77
g58
NtRp1287
(dp1288
g61
(dp1289
sg70
g1275
sg63
(lp1290
g56
(g57
g58
NtRp1291
(dp1292
g61
(dp1293
g69
I3
ssg70
g1287
sg63
(lp1294
S''
asbasbasbag56
(g72
g58
NtRp1295
(dp1296
g61
(dp1297
sg70
g1191
sg63
(lp1298
g56
(g77
g58
NtRp1299
(dp1300
g61
(dp1301
g81
g82
ssg70
g1295
sg63
(lp1302
g375
asbag56
(g77
g58
NtRp1303
(dp1304
g61
(dp1305
g88
g89
ssg70
g1295
sg63
(lp1306
S':'
asbag56
(g77
g58
NtRp1307
(dp1308
g61
(dp1309
sg70
g1295
sg63
(lp1310
g56
(g57
g58
NtRp1311
(dp1312
g61
(dp1313
g69
I3
ssg70
g1307
sg63
(lp1314
S''
asbasbasbag56
(g72
g58
NtRp1315
(dp1316
g61
(dp1317
sg70
g1191
sg63
(lp1318
g56
(g77
g58
NtRp1319
(dp1320
g61
(dp1321
g81
g82
ssg70
g1315
sg63
(lp1322
g396
asbag56
(g77
g58
NtRp1323
(dp1324
g61
(dp1325
g88
g89
ssg70
g1315
sg63
(lp1326
S':'
asbag56
(g77
g58
NtRp1327
(dp1328
g61
(dp1329
sg70
g1315
sg63
(lp1330
g56
(g57
g58
NtRp1331
(dp1332
g61
(dp1333
g69
I3
ssg70
g1327
sg63
(lp1334
S''
asbasbasbag56
(g72
g58
NtRp1335
(dp1336
g61
(dp1337
sg70
g1191
sg63
(lp1338
g56
(g77
g58
NtRp1339
(dp1340
g61
(dp1341
g81
g82
ssg70
g1335
sg63
(lp1342
g417
asbag56
(g77
g58
NtRp1343
(dp1344
g61
(dp1345
g88
g89
ssg70
g1335
sg63
(lp1346
S':'
asbag56
(g77
g58
NtRp1347
(dp1348
g61
(dp1349
sg70
g1335
sg63
(lp1350
g56
(g57
g58
NtRp1351
(dp1352
g61
(dp1353
g69
I3
ssg70
g1347
sg63
(lp1354
S''
asbasbasbasbasbasbasbag56
(g72
g58
NtRp1355
(dp1356
g61
(dp1357
sg70
g233
sg63
(lp1358
g56
(g77
g58
NtRp1359
(dp1360
g61
(dp1361
g81
g82
ssg70
g1355
sg63
(lp1362
S'sessionid'
p1363
asbag56
(g77
g58
NtRp1364
(dp1365
g61
(dp1366
g88
g89
ssg70
g1355
sg63
(lp1367
S':'
asbag56
(g77
g58
NtRp1368
(dp1369
g61
(dp1370
sg70
g1355
sg63
(lp1371
g56
(g57
g58
NtRp1372
(dp1373
g61
(dp1374
g69
I4
ssg70
g1368
sg63
(lp1375
g56
(g65
g58
NtRp1376
(dp1377
g61
(dp1378
g69
I3
ssg70
Nsg63
(lp1379
g56
(g72
g58
NtRp1380
(dp1381
g61
(dp1382
sg70
g1376
sg63
(lp1383
g56
(g77
g58
NtRp1384
(dp1385
g61
(dp1386
g81
g82
ssg70
g1380
sg63
(lp1387
g270
asbag56
(g77
g58
NtRp1388
(dp1389
g61
(dp1390
g88
g89
ssg70
g1380
sg63
(lp1391
S':'
asbag56
(g77
g58
NtRp1392
(dp1393
g61
(dp1394
sg70
g1380
sg63
(lp1395
g56
(g57
g58
NtRp1396
(dp1397
g61
(dp1398
g69
I3
ssg70
g1392
sg63
(lp1399
S''
asbasbasbag56
(g72
g58
NtRp1400
(dp1401
g61
(dp1402
sg70
g1376
sg63
(lp1403
g56
(g77
g58
NtRp1404
(dp1405
g61
(dp1406
g81
g82
ssg70
g1400
sg63
(lp1407
g291
asbag56
(g77
g58
NtRp1408
(dp1409
g61
(dp1410
g88
g89
ssg70
g1400
sg63
(lp1411
S':'
asbag56
(g77
g58
NtRp1412
(dp1413
g61
(dp1414
sg70
g1400
sg63
(lp1415
g56
(g57
g58
NtRp1416
(dp1417
g61
(dp1418
g69
I3
ssg70
g1412
sg63
(lp1419
S''
asbasbasbag56
(g72
g58
NtRp1420
(dp1421
g61
(dp1422
sg70
g1376
sg63
(lp1423
g56
(g77
g58
NtRp1424
(dp1425
g61
(dp1426
g81
g82
ssg70
g1420
sg63
(lp1427
g312
asbag56
(g77
g58
NtRp1428
(dp1429
g61
(dp1430
g88
g89
ssg70
g1420
sg63
(lp1431
S':'
asbag56
(g77
g58
NtRp1432
(dp1433
g61
(dp1434
sg70
g1420
sg63
(lp1435
g56
(g57
g58
NtRp1436
(dp1437
g61
(dp1438
g69
I3
ssg70
g1432
sg63
(lp1439
S''
asbasbasbag56
(g72
g58
NtRp1440
(dp1441
g61
(dp1442
sg70
g1376
sg63
(lp1443
g56
(g77
g58
NtRp1444
(dp1445
g61
(dp1446
g81
g82
ssg70
g1440
sg63
(lp1447
g333
asbag56
(g77
g58
NtRp1448
(dp1449
g61
(dp1450
g88
g89
ssg70
g1440
sg63
(lp1451
S':'
asbag56
(g77
g58
NtRp1452
(dp1453
g61
(dp1454
sg70
g1440
sg63
(lp1455
g56
(g57
g58
NtRp1456
(dp1457
g61
(dp1458
g69
I3
ssg70
g1452
sg63
(lp1459
S''
asbasbasbag56
(g72
g58
NtRp1460
(dp1461
g61
(dp1462
sg70
g1376
sg63
(lp1463
g56
(g77
g58
NtRp1464
(dp1465
g61
(dp1466
g81
g82
ssg70
g1460
sg63
(lp1467
g354
asbag56
(g77
g58
NtRp1468
(dp1469
g61
(dp1470
g88
g89
ssg70
g1460
sg63
(lp1471
S':'
asbag56
(g77
g58
NtRp1472
(dp1473
g61
(dp1474
sg70
g1460
sg63
(lp1475
g56
(g57
g58
NtRp1476
(dp1477
g61
(dp1478
g69
I3
ssg70
g1472
sg63
(lp1479
S''
asbasbasbag56
(g72
g58
NtRp1480
(dp1481
g61
(dp1482
sg70
g1376
sg63
(lp1483
g56
(g77
g58
NtRp1484
(dp1485
g61
(dp1486
g81
g82
ssg70
g1480
sg63
(lp1487
g375
asbag56
(g77
g58
NtRp1488
(dp1489
g61
(dp1490
g88
g89
ssg70
g1480
sg63
(lp1491
S':'
asbag56
(g77
g58
NtRp1492
(dp1493
g61
(dp1494
sg70
g1480
sg63
(lp1495
g56
(g57
g58
NtRp1496
(dp1497
g61
(dp1498
g69
I3
ssg70
g1492
sg63
(lp1499
S''
asbasbasbag56
(g72
g58
NtRp1500
(dp1501
g61
(dp1502
sg70
g1376
sg63
(lp1503
g56
(g77
g58
NtRp1504
(dp1505
g61
(dp1506
g81
g82
ssg70
g1500
sg63
(lp1507
g396
asbag56
(g77
g58
NtRp1508
(dp1509
g61
(dp1510
g88
g89
ssg70
g1500
sg63
(lp1511
S':'
asbag56
(g77
g58
NtRp1512
(dp1513
g61
(dp1514
sg70
g1500
sg63
(lp1515
g56
(g57
g58
NtRp1516
(dp1517
g61
(dp1518
g69
I3
ssg70
g1512
sg63
(lp1519
S''
asbasbasbag56
(g72
g58
NtRp1520
(dp1521
g61
(dp1522
sg70
g1376
sg63
(lp1523
g56
(g77
g58
NtRp1524
(dp1525
g61
(dp1526
g81
g82
ssg70
g1520
sg63
(lp1527
g417
asbag56
(g77
g58
NtRp1528
(dp1529
g61
(dp1530
g88
g89
ssg70
g1520
sg63
(lp1531
S':'
asbag56
(g77
g58
NtRp1532
(dp1533
g61
(dp1534
sg70
g1520
sg63
(lp1535
g56
(g57
g58
NtRp1536
(dp1537
g61
(dp1538
g69
I3
ssg70
g1532
sg63
(lp1539
S''
asbasbasbasbasbasbasbasbasbasbasbag56
(g72
g58
NtRp1540
(dp1541
g61
(dp1542
sg70
g66
sg63
(lp1543
g56
(g77
g58
NtRp1544
(dp1545
g61
(dp1546
g81
g82
ssg70
g1540
sg63
(lp1547
S'env'
p1548
asbag56
(g77
g58
NtRp1549
(dp1550
g61
(dp1551
g88
g89
ssg70
g1540
sg63
(lp1552
S':'
asbag56
(g77
g58
NtRp1553
(dp1554
g61
(dp1555
sg70
g1540
sg63
(lp1556
g56
(g57
g58
NtRp1557
(dp1558
g61
(dp1559
g69
I5
ssg70
g1553
sg63
(lp1560
g56
(g65
g58
NtRp1561
(dp1562
g61
(dp1563
g69
I4
ssg70
Nsg63
(lp1564
g56
(g72
g58
NtRp1565
(dp1566
g61
(dp1567
sg70
g1561
sg63
(lp1568
g56
(g77
g58
NtRp1569
(dp1570
g61
(dp1571
g81
g82
ssg70
g1565
sg63
(lp1572
S'app_folders'
p1573
asbag56
(g77
g58
NtRp1574
(dp1575
g61
(dp1576
g88
g89
ssg70
g1565
sg63
(lp1577
S':'
asbag56
(g77
g58
NtRp1578
(dp1579
g61
(dp1580
sg70
g1565
sg63
(lp1581
g56
(g57
g58
NtRp1582
(dp1583
g61
(dp1584
g69
I4
ssg70
g1578
sg63
(lp1585
S"set(['/home/strzel_a/web2py/applications/bench/', '/home/strzel_a/web2py/applications/admin/', '/home/strzel_a/web2py/applications/shamebook/'])"
p1586
asbasbasbag56
(g72
g58
NtRp1587
(dp1588
g61
(dp1589
sg70
g1561
sg63
(lp1590
g56
(g77
g58
NtRp1591
(dp1592
g61
(dp1593
g81
g82
ssg70
g1587
sg63
(lp1594
S'applications_parent'
p1595
asbag56
(g77
g58
NtRp1596
(dp1597
g61
(dp1598
g88
g89
ssg70
g1587
sg63
(lp1599
S':'
asbag56
(g77
g58
NtRp1600
(dp1601
g61
(dp1602
sg70
g1587
sg63
(lp1603
g56
(g57
g58
NtRp1604
(dp1605
g61
(dp1606
g69
I4
ssg70
g1600
sg63
(lp1607
S'/home/strzel_a/web2py'
p1608
asbasbasbag56
(g72
g58
NtRp1609
(dp1610
g61
(dp1611
sg70
g1561
sg63
(lp1612
g56
(g77
g58
NtRp1613
(dp1614
g61
(dp1615
g81
g82
ssg70
g1609
sg63
(lp1616
S'cmd_args'
p1617
asbag56
(g77
g58
NtRp1618
(dp1619
g61
(dp1620
g88
g89
ssg70
g1609
sg63
(lp1621
S':'
asbag56
(g77
g58
NtRp1622
(dp1623
g61
(dp1624
sg70
g1609
sg63
(lp1625
g56
(g57
g58
NtRp1626
(dp1627
g61
(dp1628
g69
I4
ssg70
g1622
sg63
(lp1629
g56
(g65
g58
NtRp1630
(dp1631
g61
(dp1632
g69
I3
ssg70
Nsg63
(lp1633
sbasbasbasbag56
(g72
g58
NtRp1634
(dp1635
g61
(dp1636
sg70
g1561
sg63
(lp1637
g56
(g77
g58
NtRp1638
(dp1639
g61
(dp1640
g81
g82
ssg70
g1634
sg63
(lp1641
S'cmd_options'
p1642
asbag56
(g77
g58
NtRp1643
(dp1644
g61
(dp1645
g88
g89
ssg70
g1634
sg63
(lp1646
S':'
asbag56
(g77
g58
NtRp1647
(dp1648
g61
(dp1649
sg70
g1634
sg63
(lp1650
g56
(g57
g58
NtRp1651
(dp1652
g61
(dp1653
g69
I4
ssg70
g1647
sg63
(lp1654
S"<Values at 0x199d320: {'verbose': False, 'ip': '127.0.0.1', 'shutdown_timeout': 5, 'taskbar': False, 'port': 9001, 'maxthreads': None, 'softcron': False, 'server_name': 'hemca-machine', 'bpython': False, 'nogui': False, 'nocron': False, 'extcron': False, 'debuglevel': 30, 'test': None, 'folder': '/home/strzel_a/web2py', 'config': '', 'import_models': False, 'winservice': '', 'shell': None, 'run': '', 'log_filename': 'httpserver.log', 'args': [''], 'profiler_filename': None, 'ssl_private_key': '', 'password': '123456', 'request_queue_size': 5, 'ssl_certificate': '', 'cronjob': False, 'plain': False, 'quiet': False, 'interfaces': None, 'minthreads': None, 'timeout': 10, 'numthreads': None, 'pid_filename': 'httpserver.pid'}>"
p1655
asbasbasbag56
(g72
g58
NtRp1656
(dp1657
g61
(dp1658
sg70
g1561
sg63
(lp1659
g56
(g77
g58
NtRp1660
(dp1661
g61
(dp1662
g81
g82
ssg70
g1656
sg63
(lp1663
S'db_sessions'
p1664
asbag56
(g77
g58
NtRp1665
(dp1666
g61
(dp1667
g88
g89
ssg70
g1656
sg63
(lp1668
S':'
asbag56
(g77
g58
NtRp1669
(dp1670
g61
(dp1671
sg70
g1656
sg63
(lp1672
g56
(g57
g58
NtRp1673
(dp1674
g61
(dp1675
g69
I4
ssg70
g1669
sg63
(lp1676
S'set([])'
p1677
asbasbasbag56
(g72
g58
NtRp1678
(dp1679
g61
(dp1680
sg70
g1561
sg63
(lp1681
g56
(g77
g58
NtRp1682
(dp1683
g61
(dp1684
g81
g82
ssg70
g1678
sg63
(lp1685
S'debugging'
p1686
asbag56
(g77
g58
NtRp1687
(dp1688
g61
(dp1689
g88
g89
ssg70
g1678
sg63
(lp1690
S':'
asbag56
(g77
g58
NtRp1691
(dp1692
g61
(dp1693
sg70
g1678
sg63
(lp1694
g56
(g57
g58
NtRp1695
(dp1696
g61
(dp1697
g69
I4
ssg70
g1691
sg63
(lp1698
g99
asbasbasbag56
(g72
g58
NtRp1699
(dp1700
g61
(dp1701
sg70
g1561
sg63
(lp1702
g56
(g77
g58
NtRp1703
(dp1704
g61
(dp1705
g81
g82
ssg70
g1699
sg63
(lp1706
S'gluon_parent'
p1707
asbag56
(g77
g58
NtRp1708
(dp1709
g61
(dp1710
g88
g89
ssg70
g1699
sg63
(lp1711
S':'
asbag56
(g77
g58
NtRp1712
(dp1713
g61
(dp1714
sg70
g1699
sg63
(lp1715
g56
(g57
g58
NtRp1716
(dp1717
g61
(dp1718
g69
I4
ssg70
g1712
sg63
(lp1719
S'/home/strzel_a/web2py'
p1720
asbasbasbag56
(g72
g58
NtRp1721
(dp1722
g61
(dp1723
sg70
g1561
sg63
(lp1724
g56
(g77
g58
NtRp1725
(dp1726
g61
(dp1727
g81
g82
ssg70
g1721
sg63
(lp1728
S'http_accept'
p1729
asbag56
(g77
g58
NtRp1730
(dp1731
g61
(dp1732
g88
g89
ssg70
g1721
sg63
(lp1733
S':'
asbag56
(g77
g58
NtRp1734
(dp1735
g61
(dp1736
sg70
g1721
sg63
(lp1737
g56
(g57
g58
NtRp1738
(dp1739
g61
(dp1740
g69
I4
ssg70
g1734
sg63
(lp1741
S'application/xml,application/xhtml+xml,text/html;q=0.9,text/plain;q=0.8,image/png,*/*;q=0.5'
p1742
asbasbasbag56
(g72
g58
NtRp1743
(dp1744
g61
(dp1745
sg70
g1561
sg63
(lp1746
g56
(g77
g58
NtRp1747
(dp1748
g61
(dp1749
g81
g82
ssg70
g1743
sg63
(lp1750
S'http_accept_charset'
p1751
asbag56
(g77
g58
NtRp1752
(dp1753
g61
(dp1754
g88
g89
ssg70
g1743
sg63
(lp1755
S':'
asbag56
(g77
g58
NtRp1756
(dp1757
g61
(dp1758
sg70
g1743
sg63
(lp1759
g56
(g57
g58
NtRp1760
(dp1761
g61
(dp1762
g69
I4
ssg70
g1756
sg63
(lp1763
S'ISO-8859-1,utf-8;q=0.7,*;q=0.3'
p1764
asbasbasbag56
(g72
g58
NtRp1765
(dp1766
g61
(dp1767
sg70
g1561
sg63
(lp1768
g56
(g77
g58
NtRp1769
(dp1770
g61
(dp1771
g81
g82
ssg70
g1765
sg63
(lp1772
S'http_accept_encoding'
p1773
asbag56
(g77
g58
NtRp1774
(dp1775
g61
(dp1776
g88
g89
ssg70
g1765
sg63
(lp1777
S':'
asbag56
(g77
g58
NtRp1778
(dp1779
g61
(dp1780
sg70
g1765
sg63
(lp1781
g56
(g57
g58
NtRp1782
(dp1783
g61
(dp1784
g69
I4
ssg70
g1778
sg63
(lp1785
S'gzip,deflate,sdch'
p1786
asbasbasbag56
(g72
g58
NtRp1787
(dp1788
g61
(dp1789
sg70
g1561
sg63
(lp1790
g56
(g77
g58
NtRp1791
(dp1792
g61
(dp1793
g81
g82
ssg70
g1787
sg63
(lp1794
S'http_accept_language'
p1795
asbag56
(g77
g58
NtRp1796
(dp1797
g61
(dp1798
g88
g89
ssg70
g1787
sg63
(lp1799
S':'
asbag56
(g77
g58
NtRp1800
(dp1801
g61
(dp1802
sg70
g1787
sg63
(lp1803
g56
(g57
g58
NtRp1804
(dp1805
g61
(dp1806
g69
I4
ssg70
g1800
sg63
(lp1807
S'en-US,en;q=0.8,fr;q=0.6'
p1808
asbasbasbag56
(g72
g58
NtRp1809
(dp1810
g61
(dp1811
sg70
g1561
sg63
(lp1812
g56
(g77
g58
NtRp1813
(dp1814
g61
(dp1815
g81
g82
ssg70
g1809
sg63
(lp1816
S'http_cache_control'
p1817
asbag56
(g77
g58
NtRp1818
(dp1819
g61
(dp1820
g88
g89
ssg70
g1809
sg63
(lp1821
S':'
asbag56
(g77
g58
NtRp1822
(dp1823
g61
(dp1824
sg70
g1809
sg63
(lp1825
g56
(g57
g58
NtRp1826
(dp1827
g61
(dp1828
g69
I4
ssg70
g1822
sg63
(lp1829
S'max-age=0'
p1830
asbasbasbag56
(g72
g58
NtRp1831
(dp1832
g61
(dp1833
sg70
g1561
sg63
(lp1834
g56
(g77
g58
NtRp1835
(dp1836
g61
(dp1837
g81
g82
ssg70
g1831
sg63
(lp1838
S'http_connection'
p1839
asbag56
(g77
g58
NtRp1840
(dp1841
g61
(dp1842
g88
g89
ssg70
g1831
sg63
(lp1843
S':'
asbag56
(g77
g58
NtRp1844
(dp1845
g61
(dp1846
sg70
g1831
sg63
(lp1847
g56
(g57
g58
NtRp1848
(dp1849
g61
(dp1850
g69
I4
ssg70
g1844
sg63
(lp1851
S'keep-alive'
p1852
asbasbasbag56
(g72
g58
NtRp1853
(dp1854
g61
(dp1855
sg70
g1561
sg63
(lp1856
g56
(g77
g58
NtRp1857
(dp1858
g61
(dp1859
g81
g82
ssg70
g1853
sg63
(lp1860
S'http_cookie'
p1861
asbag56
(g77
g58
NtRp1862
(dp1863
g61
(dp1864
g88
g89
ssg70
g1853
sg63
(lp1865
S':'
asbag56
(g77
g58
NtRp1866
(dp1867
g61
(dp1868
sg70
g1853
sg63
(lp1869
g56
(g57
g58
NtRp1870
(dp1871
g61
(dp1872
g69
I4
ssg70
g1866
sg63
(lp1873
S'__utma_a2a=1892924862.1332329569.1300772643.1300772643.1300772643.2; lbk=108,109,188,189,189,189,189,188,187,186,115,116,118,118,119,119,117,117,127,114,114,113,113,152,152,152,152,152,152,122,120,120,120,120,120,120,123,125,121,183,154,185,155,156,157,175,176,111,2,3,4,5,9,15,6,86,85,84,197,192,196,195,194,198,200,7,73,71,72; sessionid=e1561d45cf8b97b67a7fe429c35b97c4; csrftoken=5f33e658da1baec203558d64b58e4cdc; session_id_welcome=127.0.0.1-76172e5e-b2b1-4e42-afeb-6514e75083c6; session_id_shamebook=127.0.0.1-d070db0e-2530-4753-b4ec-e07951463d05; session_id_bench=127.0.0.1-bd75bc63-5cd9-4975-a78e-056513a6b389; session_id_admin=127.0.0.1-8ea6b216-d86f-4f76-b253-6d25a76fbfe5'
p1874
asbasbasbag56
(g72
g58
NtRp1875
(dp1876
g61
(dp1877
sg70
g1561
sg63
(lp1878
g56
(g77
g58
NtRp1879
(dp1880
g61
(dp1881
g81
g82
ssg70
g1875
sg63
(lp1882
S'http_host'
p1883
asbag56
(g77
g58
NtRp1884
(dp1885
g61
(dp1886
g88
g89
ssg70
g1875
sg63
(lp1887
S':'
asbag56
(g77
g58
NtRp1888
(dp1889
g61
(dp1890
sg70
g1875
sg63
(lp1891
g56
(g57
g58
NtRp1892
(dp1893
g61
(dp1894
g69
I4
ssg70
g1888
sg63
(lp1895
S'localhost:9001'
p1896
asbasbasbag56
(g72
g58
NtRp1897
(dp1898
g61
(dp1899
sg70
g1561
sg63
(lp1900
g56
(g77
g58
NtRp1901
(dp1902
g61
(dp1903
g81
g82
ssg70
g1897
sg63
(lp1904
S'http_user_agent'
p1905
asbag56
(g77
g58
NtRp1906
(dp1907
g61
(dp1908
g88
g89
ssg70
g1897
sg63
(lp1909
S':'
asbag56
(g77
g58
NtRp1910
(dp1911
g61
(dp1912
sg70
g1897
sg63
(lp1913
g56
(g57
g58
NtRp1914
(dp1915
g61
(dp1916
g69
I4
ssg70
g1910
sg63
(lp1917
S'Mozilla/5.0 (X11; U; Linux x86_64; en-US) AppleWebKit/534.16 (KHTML, like Gecko) Ubuntu/10.10 Chromium/10.0.648.133 Chrome/10.0.648.133 Safari/534.16'
p1918
asbasbasbag56
(g72
g58
NtRp1919
(dp1920
g61
(dp1921
sg70
g1561
sg63
(lp1922
g56
(g77
g58
NtRp1923
(dp1924
g61
(dp1925
g81
g82
ssg70
g1919
sg63
(lp1926
S'path_info'
p1927
asbag56
(g77
g58
NtRp1928
(dp1929
g61
(dp1930
g88
g89
ssg70
g1919
sg63
(lp1931
S':'
asbag56
(g77
g58
NtRp1932
(dp1933
g61
(dp1934
sg70
g1919
sg63
(lp1935
g56
(g57
g58
NtRp1936
(dp1937
g61
(dp1938
g69
I4
ssg70
g1932
sg63
(lp1939
S'/bench'
p1940
asbasbasbag56
(g72
g58
NtRp1941
(dp1942
g61
(dp1943
sg70
g1561
sg63
(lp1944
g56
(g77
g58
NtRp1945
(dp1946
g61
(dp1947
g81
g82
ssg70
g1941
sg63
(lp1948
S'query_string'
p1949
asbag56
(g77
g58
NtRp1950
(dp1951
g61
(dp1952
g88
g89
ssg70
g1941
sg63
(lp1953
S':'
asbag56
(g77
g58
NtRp1954
(dp1955
g61
(dp1956
sg70
g1941
sg63
(lp1957
g56
(g57
g58
NtRp1958
(dp1959
g61
(dp1960
g69
I4
ssg70
g1954
sg63
(lp1961
S''
asbasbasbag56
(g72
g58
NtRp1962
(dp1963
g61
(dp1964
sg70
g1561
sg63
(lp1965
g56
(g77
g58
NtRp1966
(dp1967
g61
(dp1968
g81
g82
ssg70
g1962
sg63
(lp1969
S'remote_addr'
p1970
asbag56
(g77
g58
NtRp1971
(dp1972
g61
(dp1973
g88
g89
ssg70
g1962
sg63
(lp1974
S':'
asbag56
(g77
g58
NtRp1975
(dp1976
g61
(dp1977
sg70
g1962
sg63
(lp1978
g56
(g57
g58
NtRp1979
(dp1980
g61
(dp1981
g69
I4
ssg70
g1975
sg63
(lp1982
g189
asbasbasbag56
(g72
g58
NtRp1983
(dp1984
g61
(dp1985
sg70
g1561
sg63
(lp1986
g56
(g77
g58
NtRp1987
(dp1988
g61
(dp1989
g81
g82
ssg70
g1983
sg63
(lp1990
S'remote_port'
p1991
asbag56
(g77
g58
NtRp1992
(dp1993
g61
(dp1994
g88
g89
ssg70
g1983
sg63
(lp1995
S':'
asbag56
(g77
g58
NtRp1996
(dp1997
g61
(dp1998
sg70
g1983
sg63
(lp1999
g56
(g57
g58
NtRp2000
(dp2001
g61
(dp2002
g69
I4
ssg70
g1996
sg63
(lp2003
S'50714'
p2004
asbasbasbag56
(g72
g58
NtRp2005
(dp2006
g61
(dp2007
sg70
g1561
sg63
(lp2008
g56
(g77
g58
NtRp2009
(dp2010
g61
(dp2011
g81
g82
ssg70
g2005
sg63
(lp2012
S'request_method'
p2013
asbag56
(g77
g58
NtRp2014
(dp2015
g61
(dp2016
g88
g89
ssg70
g2005
sg63
(lp2017
S':'
asbag56
(g77
g58
NtRp2018
(dp2019
g61
(dp2020
sg70
g2005
sg63
(lp2021
g56
(g57
g58
NtRp2022
(dp2023
g61
(dp2024
g69
I4
ssg70
g2018
sg63
(lp2025
S'GET'
p2026
asbasbasbag56
(g72
g58
NtRp2027
(dp2028
g61
(dp2029
sg70
g1561
sg63
(lp2030
g56
(g77
g58
NtRp2031
(dp2032
g61
(dp2033
g81
g82
ssg70
g2027
sg63
(lp2034
S'request_uri'
p2035
asbag56
(g77
g58
NtRp2036
(dp2037
g61
(dp2038
g88
g89
ssg70
g2027
sg63
(lp2039
S':'
asbag56
(g77
g58
NtRp2040
(dp2041
g61
(dp2042
sg70
g2027
sg63
(lp2043
g56
(g57
g58
NtRp2044
(dp2045
g61
(dp2046
g69
I4
ssg70
g2040
sg63
(lp2047
g1940
asbasbasbag56
(g72
g58
NtRp2048
(dp2049
g61
(dp2050
sg70
g1561
sg63
(lp2051
g56
(g77
g58
NtRp2052
(dp2053
g61
(dp2054
g81
g82
ssg70
g2048
sg63
(lp2055
S'script_name'
p2056
asbag56
(g77
g58
NtRp2057
(dp2058
g61
(dp2059
g88
g89
ssg70
g2048
sg63
(lp2060
S':'
asbag56
(g77
g58
NtRp2061
(dp2062
g61
(dp2063
sg70
g2048
sg63
(lp2064
g56
(g57
g58
NtRp2065
(dp2066
g61
(dp2067
g69
I4
ssg70
g2061
sg63
(lp2068
S''
asbasbasbag56
(g72
g58
NtRp2069
(dp2070
g61
(dp2071
sg70
g1561
sg63
(lp2072
g56
(g77
g58
NtRp2073
(dp2074
g61
(dp2075
g81
g82
ssg70
g2069
sg63
(lp2076
S'server_name'
p2077
asbag56
(g77
g58
NtRp2078
(dp2079
g61
(dp2080
g88
g89
ssg70
g2069
sg63
(lp2081
S':'
asbag56
(g77
g58
NtRp2082
(dp2083
g61
(dp2084
sg70
g2069
sg63
(lp2085
g56
(g57
g58
NtRp2086
(dp2087
g61
(dp2088
g69
I4
ssg70
g2082
sg63
(lp2089
S'hemca-machine'
p2090
asbasbasbag56
(g72
g58
NtRp2091
(dp2092
g61
(dp2093
sg70
g1561
sg63
(lp2094
g56
(g77
g58
NtRp2095
(dp2096
g61
(dp2097
g81
g82
ssg70
g2091
sg63
(lp2098
S'server_port'
p2099
asbag56
(g77
g58
NtRp2100
(dp2101
g61
(dp2102
g88
g89
ssg70
g2091
sg63
(lp2103
S':'
asbag56
(g77
g58
NtRp2104
(dp2105
g61
(dp2106
sg70
g2091
sg63
(lp2107
g56
(g57
g58
NtRp2108
(dp2109
g61
(dp2110
g69
I4
ssg70
g2104
sg63
(lp2111
S'9001'
p2112
asbasbasbag56
(g72
g58
NtRp2113
(dp2114
g61
(dp2115
sg70
g1561
sg63
(lp2116
g56
(g77
g58
NtRp2117
(dp2118
g61
(dp2119
g81
g82
ssg70
g2113
sg63
(lp2120
S'server_protocol'
p2121
asbag56
(g77
g58
NtRp2122
(dp2123
g61
(dp2124
g88
g89
ssg70
g2113
sg63
(lp2125
S':'
asbag56
(g77
g58
NtRp2126
(dp2127
g61
(dp2128
sg70
g2113
sg63
(lp2129
g56
(g57
g58
NtRp2130
(dp2131
g61
(dp2132
g69
I4
ssg70
g2126
sg63
(lp2133
S'HTTP/1.1'
p2134
asbasbasbag56
(g72
g58
NtRp2135
(dp2136
g61
(dp2137
sg70
g1561
sg63
(lp2138
g56
(g77
g58
NtRp2139
(dp2140
g61
(dp2141
g81
g82
ssg70
g2135
sg63
(lp2142
S'server_software'
p2143
asbag56
(g77
g58
NtRp2144
(dp2145
g61
(dp2146
g88
g89
ssg70
g2135
sg63
(lp2147
S':'
asbag56
(g77
g58
NtRp2148
(dp2149
g61
(dp2150
sg70
g2135
sg63
(lp2151
g56
(g57
g58
NtRp2152
(dp2153
g61
(dp2154
g69
I4
ssg70
g2148
sg63
(lp2155
S'Rocket 1.2.2'
p2156
asbasbasbag56
(g72
g58
NtRp2157
(dp2158
g61
(dp2159
sg70
g1561
sg63
(lp2160
g56
(g77
g58
NtRp2161
(dp2162
g61
(dp2163
g81
g82
ssg70
g2157
sg63
(lp2164
S'web2py_crontype'
p2165
asbag56
(g77
g58
NtRp2166
(dp2167
g61
(dp2168
g88
g89
ssg70
g2157
sg63
(lp2169
S':'
asbag56
(g77
g58
NtRp2170
(dp2171
g61
(dp2172
sg70
g2157
sg63
(lp2173
g56
(g57
g58
NtRp2174
(dp2175
g61
(dp2176
g69
I4
ssg70
g2170
sg63
(lp2177
S'hard'
p2178
asbasbasbag56
(g72
g58
NtRp2179
(dp2180
g61
(dp2181
sg70
g1561
sg63
(lp2182
g56
(g77
g58
NtRp2183
(dp2184
g61
(dp2185
g81
g82
ssg70
g2179
sg63
(lp2186
S'web2py_original_uri'
p2187
asbag56
(g77
g58
NtRp2188
(dp2189
g61
(dp2190
g88
g89
ssg70
g2179
sg63
(lp2191
S':'
asbag56
(g77
g58
NtRp2192
(dp2193
g61
(dp2194
sg70
g2179
sg63
(lp2195
g56
(g57
g58
NtRp2196
(dp2197
g61
(dp2198
g69
I4
ssg70
g2192
sg63
(lp2199
g1940
asbasbasbag56
(g72
g58
NtRp2200
(dp2201
g61
(dp2202
sg70
g1561
sg63
(lp2203
g56
(g77
g58
NtRp2204
(dp2205
g61
(dp2206
g81
g82
ssg70
g2200
sg63
(lp2207
S'web2py_path'
p2208
asbag56
(g77
g58
NtRp2209
(dp2210
g61
(dp2211
g88
g89
ssg70
g2200
sg63
(lp2212
S':'
asbag56
(g77
g58
NtRp2213
(dp2214
g61
(dp2215
sg70
g2200
sg63
(lp2216
g56
(g57
g58
NtRp2217
(dp2218
g61
(dp2219
g69
I4
ssg70
g2213
sg63
(lp2220
g1608
asbasbasbag56
(g72
g58
NtRp2221
(dp2222
g61
(dp2223
sg70
g1561
sg63
(lp2224
g56
(g77
g58
NtRp2225
(dp2226
g61
(dp2227
g81
g82
ssg70
g2221
sg63
(lp2228
S'web2py_version'
p2229
asbag56
(g77
g58
NtRp2230
(dp2231
g61
(dp2232
g88
g89
ssg70
g2221
sg63
(lp2233
S':'
asbag56
(g77
g58
NtRp2234
(dp2235
g61
(dp2236
sg70
g2221
sg63
(lp2237
g56
(g57
g58
NtRp2238
(dp2239
g61
(dp2240
g69
I4
ssg70
g2234
sg63
(lp2241
S'Version 1.95.1 (2011-04-25 15:04:14)\n'
p2242
asbasbasbag56
(g72
g58
NtRp2243
(dp2244
g61
(dp2245
sg70
g1561
sg63
(lp2246
g56
(g77
g58
NtRp2247
(dp2248
g61
(dp2249
g81
g82
ssg70
g2243
sg63
(lp2250
S'wsgi_errors'
p2251
asbag56
(g77
g58
NtRp2252
(dp2253
g61
(dp2254
g88
g89
ssg70
g2243
sg63
(lp2255
S':'
asbag56
(g77
g58
NtRp2256
(dp2257
g61
(dp2258
sg70
g2243
sg63
(lp2259
g56
(g57
g58
NtRp2260
(dp2261
g61
(dp2262
g69
I4
ssg70
g2256
sg63
(lp2263
S"<open file '<stderr>', mode 'w' at 0x7fd0cdd5d1e0>"
p2264
asbasbasbag56
(g72
g58
NtRp2265
(dp2266
g61
(dp2267
sg70
g1561
sg63
(lp2268
g56
(g77
g58
NtRp2269
(dp2270
g61
(dp2271
g81
g82
ssg70
g2265
sg63
(lp2272
S'wsgi_file_wrapper'
p2273
asbag56
(g77
g58
NtRp2274
(dp2275
g61
(dp2276
g88
g89
ssg70
g2265
sg63
(lp2277
S':'
asbag56
(g77
g58
NtRp2278
(dp2279
g61
(dp2280
sg70
g2265
sg63
(lp2281
g56
(g57
g58
NtRp2282
(dp2283
g61
(dp2284
g69
I4
ssg70
g2278
sg63
(lp2285
S'<class gluon.rocket.FileWrapper at 0x187cad0>'
p2286
asbasbasbag56
(g72
g58
NtRp2287
(dp2288
g61
(dp2289
sg70
g1561
sg63
(lp2290
g56
(g77
g58
NtRp2291
(dp2292
g61
(dp2293
g81
g82
ssg70
g2287
sg63
(lp2294
S'wsgi_input'
p2295
asbag56
(g77
g58
NtRp2296
(dp2297
g61
(dp2298
g88
g89
ssg70
g2287
sg63
(lp2299
S':'
asbag56
(g77
g58
NtRp2300
(dp2301
g61
(dp2302
sg70
g2287
sg63
(lp2303
g56
(g57
g58
NtRp2304
(dp2305
g61
(dp2306
g69
I4
ssg70
g2300
sg63
(lp2307
S'<socket._fileobject object at 0x263cdd0>'
p2308
asbasbasbag56
(g72
g58
NtRp2309
(dp2310
g61
(dp2311
sg70
g1561
sg63
(lp2312
g56
(g77
g58
NtRp2313
(dp2314
g61
(dp2315
g81
g82
ssg70
g2309
sg63
(lp2316
S'wsgi_multiprocess'
p2317
asbag56
(g77
g58
NtRp2318
(dp2319
g61
(dp2320
g88
g89
ssg70
g2309
sg63
(lp2321
S':'
asbag56
(g77
g58
NtRp2322
(dp2323
g61
(dp2324
sg70
g2309
sg63
(lp2325
g56
(g57
g58
NtRp2326
(dp2327
g61
(dp2328
g69
I4
ssg70
g2322
sg63
(lp2329
g99
asbasbasbag56
(g72
g58
NtRp2330
(dp2331
g61
(dp2332
sg70
g1561
sg63
(lp2333
g56
(g77
g58
NtRp2334
(dp2335
g61
(dp2336
g81
g82
ssg70
g2330
sg63
(lp2337
S'wsgi_multithread'
p2338
asbag56
(g77
g58
NtRp2339
(dp2340
g61
(dp2341
g88
g89
ssg70
g2330
sg63
(lp2342
S':'
asbag56
(g77
g58
NtRp2343
(dp2344
g61
(dp2345
sg70
g2330
sg63
(lp2346
g56
(g57
g58
NtRp2347
(dp2348
g61
(dp2349
g69
I4
ssg70
g2343
sg63
(lp2350
S'True'
p2351
asbasbasbag56
(g72
g58
NtRp2352
(dp2353
g61
(dp2354
sg70
g1561
sg63
(lp2355
g56
(g77
g58
NtRp2356
(dp2357
g61
(dp2358
g81
g82
ssg70
g2352
sg63
(lp2359
S'wsgi_run_once'
p2360
asbag56
(g77
g58
NtRp2361
(dp2362
g61
(dp2363
g88
g89
ssg70
g2352
sg63
(lp2364
S':'
asbag56
(g77
g58
NtRp2365
(dp2366
g61
(dp2367
sg70
g2352
sg63
(lp2368
g56
(g57
g58
NtRp2369
(dp2370
g61
(dp2371
g69
I4
ssg70
g2365
sg63
(lp2372
g99
asbasbasbag56
(g72
g58
NtRp2373
(dp2374
g61
(dp2375
sg70
g1561
sg63
(lp2376
g56
(g77
g58
NtRp2377
(dp2378
g61
(dp2379
g81
g82
ssg70
g2373
sg63
(lp2380
S'wsgi_url_scheme'
p2381
asbag56
(g77
g58
NtRp2382
(dp2383
g61
(dp2384
g88
g89
ssg70
g2373
sg63
(lp2385
S':'
asbag56
(g77
g58
NtRp2386
(dp2387
g61
(dp2388
sg70
g2373
sg63
(lp2389
g56
(g57
g58
NtRp2390
(dp2391
g61
(dp2392
g69
I4
ssg70
g2386
sg63
(lp2393
S'http'
p2394
asbasbasbag56
(g72
g58
NtRp2395
(dp2396
g61
(dp2397
sg70
g1561
sg63
(lp2398
g56
(g77
g58
NtRp2399
(dp2400
g61
(dp2401
g81
g82
ssg70
g2395
sg63
(lp2402
S'wsgi_version'
p2403
asbag56
(g77
g58
NtRp2404
(dp2405
g61
(dp2406
g88
g89
ssg70
g2395
sg63
(lp2407
S':'
asbag56
(g77
g58
NtRp2408
(dp2409
g61
(dp2410
sg70
g2395
sg63
(lp2411
g56
(g57
g58
NtRp2412
(dp2413
g61
(dp2414
g69
I4
ssg70
g2408
sg63
(lp2415
g56
(g65
g58
NtRp2416
(dp2417
g61
(dp2418
g69
I3
ssg70
Nsg63
(lp2419
g56
(g72
g58
NtRp2420
(dp2421
g61
(dp2422
sg70
g2416
sg63
(lp2423
g56
(g77
g58
NtRp2424
(dp2425
g61
(dp2426
sg70
g2420
sg63
(lp2427
g56
(g57
g58
NtRp2428
(dp2429
g61
(dp2430
g69
I3
ssg70
g2424
sg63
(lp2431
S'1'
asbasbasbag56
(g72
g58
NtRp2432
(dp2433
g61
(dp2434
sg70
g2416
sg63
(lp2435
g56
(g77
g58
NtRp2436
(dp2437
g61
(dp2438
sg70
g2432
sg63
(lp2439
g56
(g57
g58
NtRp2440
(dp2441
g61
(dp2442
g69
I3
ssg70
g2436
sg63
(lp2443
S'0'
asbasbasbasbasbasbasbasbasbasbasbag56
(g72
g58
NtRp2444
(dp2445
g61
(dp2446
sg70
g66
sg63
(lp2447
g56
(g77
g58
NtRp2448
(dp2449
g61
(dp2450
g81
g82
ssg70
g2444
sg63
(lp2451
S'extension'
p2452
asbag56
(g77
g58
NtRp2453
(dp2454
g61
(dp2455
g88
g89
ssg70
g2444
sg63
(lp2456
S':'
asbag56
(g77
g58
NtRp2457
(dp2458
g61
(dp2459
sg70
g2444
sg63
(lp2460
g56
(g57
g58
NtRp2461
(dp2462
g61
(dp2463
g69
I5
ssg70
g2457
sg63
(lp2464
S'html'
p2465
asbasbasbag56
(g72
g58
NtRp2466
(dp2467
g61
(dp2468
sg70
g66
sg63
(lp2469
g56
(g77
g58
NtRp2470
(dp2471
g61
(dp2472
g81
g82
ssg70
g2466
sg63
(lp2473
S'folder'
p2474
asbag56
(g77
g58
NtRp2475
(dp2476
g61
(dp2477
g88
g89
ssg70
g2466
sg63
(lp2478
S':'
asbag56
(g77
g58
NtRp2479
(dp2480
g61
(dp2481
sg70
g2466
sg63
(lp2482
g56
(g57
g58
NtRp2483
(dp2484
g61
(dp2485
g69
I5
ssg70
g2479
sg63
(lp2486
S'/home/strzel_a/web2py/applications/bench/'
p2487
asbasbasbag56
(g72
g58
NtRp2488
(dp2489
g61
(dp2490
sg70
g66
sg63
(lp2491
g56
(g77
g58
NtRp2492
(dp2493
g61
(dp2494
g81
g82
ssg70
g2488
sg63
(lp2495
S'function'
p2496
asbag56
(g77
g58
NtRp2497
(dp2498
g61
(dp2499
g88
g89
ssg70
g2488
sg63
(lp2500
S':'
asbag56
(g77
g58
NtRp2501
(dp2502
g61
(dp2503
sg70
g2488
sg63
(lp2504
g56
(g57
g58
NtRp2505
(dp2506
g61
(dp2507
g69
I5
ssg70
g2501
sg63
(lp2508
S'index'
p2509
asbasbasbag56
(g72
g58
NtRp2510
(dp2511
g61
(dp2512
sg70
g66
sg63
(lp2513
g56
(g77
g58
NtRp2514
(dp2515
g61
(dp2516
g81
g82
ssg70
g2510
sg63
(lp2517
S'get_vars'
p2518
asbag56
(g77
g58
NtRp2519
(dp2520
g61
(dp2521
g88
g89
ssg70
g2510
sg63
(lp2522
S':'
asbag56
(g77
g58
NtRp2523
(dp2524
g61
(dp2525
sg70
g2510
sg63
(lp2526
g56
(g57
g58
NtRp2527
(dp2528
g61
(dp2529
g69
I5
ssg70
g2523
sg63
(lp2530
g56
(g65
g58
NtRp2531
(dp2532
g61
(dp2533
g69
I4
ssg70
Nsg63
(lp2534
sbasbasbasbag56
(g72
g58
NtRp2535
(dp2536
g61
(dp2537
sg70
g66
sg63
(lp2538
g56
(g77
g58
NtRp2539
(dp2540
g61
(dp2541
g81
g82
ssg70
g2535
sg63
(lp2542
S'is_restful'
p2543
asbag56
(g77
g58
NtRp2544
(dp2545
g61
(dp2546
g88
g89
ssg70
g2535
sg63
(lp2547
S':'
asbag56
(g77
g58
NtRp2548
(dp2549
g61
(dp2550
sg70
g2535
sg63
(lp2551
g56
(g57
g58
NtRp2552
(dp2553
g61
(dp2554
g69
I5
ssg70
g2548
sg63
(lp2555
g99
asbasbasbag56
(g72
g58
NtRp2556
(dp2557
g61
(dp2558
sg70
g66
sg63
(lp2559
g56
(g77
g58
NtRp2560
(dp2561
g61
(dp2562
g81
g82
ssg70
g2556
sg63
(lp2563
S'now'
p2564
asbag56
(g77
g58
NtRp2565
(dp2566
g61
(dp2567
g88
g89
ssg70
g2556
sg63
(lp2568
S':'
asbag56
(g77
g58
NtRp2569
(dp2570
g61
(dp2571
sg70
g2556
sg63
(lp2572
g56
(g57
g58
NtRp2573
(dp2574
g61
(dp2575
g69
I5
ssg70
g2569
sg63
(lp2576
S'datetime.datetime(2011, 4, 28, 23, 12, 49, 113576)'
p2577
asbasbasbag56
(g72
g58
NtRp2578
(dp2579
g61
(dp2580
sg70
g66
sg63
(lp2581
g56
(g77
g58
NtRp2582
(dp2583
g61
(dp2584
g81
g82
ssg70
g2578
sg63
(lp2585
S'post_vars'
p2586
asbag56
(g77
g58
NtRp2587
(dp2588
g61
(dp2589
g88
g89
ssg70
g2578
sg63
(lp2590
S':'
asbag56
(g77
g58
NtRp2591
(dp2592
g61
(dp2593
sg70
g2578
sg63
(lp2594
g56
(g57
g58
NtRp2595
(dp2596
g61
(dp2597
g69
I5
ssg70
g2591
sg63
(lp2598
g56
(g65
g58
NtRp2599
(dp2600
g61
(dp2601
g69
I4
ssg70
Nsg63
(lp2602
sbasbasbasbag56
(g72
g58
NtRp2603
(dp2604
g61
(dp2605
sg70
g66
sg63
(lp2606
g56
(g77
g58
NtRp2607
(dp2608
g61
(dp2609
g81
g82
ssg70
g2603
sg63
(lp2610
S'url'
p2611
asbag56
(g77
g58
NtRp2612
(dp2613
g61
(dp2614
g88
g89
ssg70
g2603
sg63
(lp2615
S':'
asbag56
(g77
g58
NtRp2616
(dp2617
g61
(dp2618
sg70
g2603
sg63
(lp2619
g56
(g57
g58
NtRp2620
(dp2621
g61
(dp2622
g69
I5
ssg70
g2616
sg63
(lp2623
S'/bench/default/index'
p2624
asbasbasbag56
(g72
g58
NtRp2625
(dp2626
g61
(dp2627
sg70
g66
sg63
(lp2628
g56
(g77
g58
NtRp2629
(dp2630
g61
(dp2631
g81
g82
ssg70
g2625
sg63
(lp2632
S'uuid'
p2633
asbag56
(g77
g58
NtRp2634
(dp2635
g61
(dp2636
g88
g89
ssg70
g2625
sg63
(lp2637
S':'
asbag56
(g77
g58
NtRp2638
(dp2639
g61
(dp2640
sg70
g2625
sg63
(lp2641
g56
(g57
g58
NtRp2642
(dp2643
g61
(dp2644
g69
I5
ssg70
g2638
sg63
(lp2645
S'bench/127.0.0.1.2011-04-28.23-12-49.b040d4b6-e3d5-4da4-a9c0-48745aabebab'
p2646
asbasbasbag56
(g72
g58
NtRp2647
(dp2648
g61
(dp2649
sg70
g66
sg63
(lp2650
g56
(g77
g58
NtRp2651
(dp2652
g61
(dp2653
g81
g82
ssg70
g2647
sg63
(lp2654
S'vars'
p2655
asbag56
(g77
g58
NtRp2656
(dp2657
g61
(dp2658
g88
g89
ssg70
g2647
sg63
(lp2659
S':'
asbag56
(g77
g58
NtRp2660
(dp2661
g61
(dp2662
sg70
g2647
sg63
(lp2663
g56
(g57
g58
NtRp2664
(dp2665
g61
(dp2666
g69
I5
ssg70
g2660
sg63
(lp2667
g56
(g65
g58
NtRp2668
(dp2669
g61
(dp2670
g69
I4
ssg70
Nsg63
(lp2671
sbasbasbasbag56
(g72
g58
NtRp2672
(dp2673
g61
(dp2674
sg70
g66
sg63
(lp2675
g56
(g77
g58
NtRp2676
(dp2677
g61
(dp2678
g81
g82
ssg70
g2672
sg63
(lp2679
S'wsgi'
p2680
asbag56
(g77
g58
NtRp2681
(dp2682
g61
(dp2683
g88
g89
ssg70
g2672
sg63
(lp2684
S':'
asbag56
(g77
g58
NtRp2685
(dp2686
g61
(dp2687
sg70
g2672
sg63
(lp2688
g56
(g57
g58
NtRp2689
(dp2690
g61
(dp2691
g69
I5
ssg70
g2685
sg63
(lp2692
g56
(g65
g58
NtRp2693
(dp2694
g61
(dp2695
g69
I4
ssg70
Nsg63
(lp2696
g56
(g72
g58
NtRp2697
(dp2698
g61
(dp2699
sg70
g2693
sg63
(lp2700
g56
(g77
g58
NtRp2701
(dp2702
g61
(dp2703
g81
g82
ssg70
g2697
sg63
(lp2704
S'environ'
p2705
asbag56
(g77
g58
NtRp2706
(dp2707
g61
(dp2708
g88
g89
ssg70
g2697
sg63
(lp2709
S':'
asbag56
(g77
g58
NtRp2710
(dp2711
g61
(dp2712
sg70
g2697
sg63
(lp2713
g56
(g57
g58
NtRp2714
(dp2715
g61
(dp2716
g69
I4
ssg70
g2710
sg63
(lp2717
g56
(g65
g58
NtRp2718
(dp2719
g61
(dp2720
g69
I3
ssg70
Nsg63
(lp2721
g56
(g72
g58
NtRp2722
(dp2723
g61
(dp2724
sg70
g2718
sg63
(lp2725
g56
(g77
g58
NtRp2726
(dp2727
g61
(dp2728
g81
g82
ssg70
g2722
sg63
(lp2729
S'HTTP_ACCEPT'
p2730
asbag56
(g77
g58
NtRp2731
(dp2732
g61
(dp2733
g88
g89
ssg70
g2722
sg63
(lp2734
S':'
asbag56
(g77
g58
NtRp2735
(dp2736
g61
(dp2737
sg70
g2722
sg63
(lp2738
g56
(g57
g58
NtRp2739
(dp2740
g61
(dp2741
g69
I3
ssg70
g2735
sg63
(lp2742
g1742
asbasbasbag56
(g72
g58
NtRp2743
(dp2744
g61
(dp2745
sg70
g2718
sg63
(lp2746
g56
(g77
g58
NtRp2747
(dp2748
g61
(dp2749
g81
g82
ssg70
g2743
sg63
(lp2750
S'HTTP_ACCEPT_CHARSET'
p2751
asbag56
(g77
g58
NtRp2752
(dp2753
g61
(dp2754
g88
g89
ssg70
g2743
sg63
(lp2755
S':'
asbag56
(g77
g58
NtRp2756
(dp2757
g61
(dp2758
sg70
g2743
sg63
(lp2759
g56
(g57
g58
NtRp2760
(dp2761
g61
(dp2762
g69
I3
ssg70
g2756
sg63
(lp2763
g1764
asbasbasbag56
(g72
g58
NtRp2764
(dp2765
g61
(dp2766
sg70
g2718
sg63
(lp2767
g56
(g77
g58
NtRp2768
(dp2769
g61
(dp2770
g81
g82
ssg70
g2764
sg63
(lp2771
S'HTTP_ACCEPT_ENCODING'
p2772
asbag56
(g77
g58
NtRp2773
(dp2774
g61
(dp2775
g88
g89
ssg70
g2764
sg63
(lp2776
S':'
asbag56
(g77
g58
NtRp2777
(dp2778
g61
(dp2779
sg70
g2764
sg63
(lp2780
g56
(g57
g58
NtRp2781
(dp2782
g61
(dp2783
g69
I3
ssg70
g2777
sg63
(lp2784
g1786
asbasbasbag56
(g72
g58
NtRp2785
(dp2786
g61
(dp2787
sg70
g2718
sg63
(lp2788
g56
(g77
g58
NtRp2789
(dp2790
g61
(dp2791
g81
g82
ssg70
g2785
sg63
(lp2792
S'HTTP_ACCEPT_LANGUAGE'
p2793
asbag56
(g77
g58
NtRp2794
(dp2795
g61
(dp2796
g88
g89
ssg70
g2785
sg63
(lp2797
S':'
asbag56
(g77
g58
NtRp2798
(dp2799
g61
(dp2800
sg70
g2785
sg63
(lp2801
g56
(g57
g58
NtRp2802
(dp2803
g61
(dp2804
g69
I3
ssg70
g2798
sg63
(lp2805
g1808
asbasbasbag56
(g72
g58
NtRp2806
(dp2807
g61
(dp2808
sg70
g2718
sg63
(lp2809
g56
(g77
g58
NtRp2810
(dp2811
g61
(dp2812
g81
g82
ssg70
g2806
sg63
(lp2813
S'HTTP_CACHE_CONTROL'
p2814
asbag56
(g77
g58
NtRp2815
(dp2816
g61
(dp2817
g88
g89
ssg70
g2806
sg63
(lp2818
S':'
asbag56
(g77
g58
NtRp2819
(dp2820
g61
(dp2821
sg70
g2806
sg63
(lp2822
g56
(g57
g58
NtRp2823
(dp2824
g61
(dp2825
g69
I3
ssg70
g2819
sg63
(lp2826
g1830
asbasbasbag56
(g72
g58
NtRp2827
(dp2828
g61
(dp2829
sg70
g2718
sg63
(lp2830
g56
(g77
g58
NtRp2831
(dp2832
g61
(dp2833
g81
g82
ssg70
g2827
sg63
(lp2834
S'HTTP_CONNECTION'
p2835
asbag56
(g77
g58
NtRp2836
(dp2837
g61
(dp2838
g88
g89
ssg70
g2827
sg63
(lp2839
S':'
asbag56
(g77
g58
NtRp2840
(dp2841
g61
(dp2842
sg70
g2827
sg63
(lp2843
g56
(g57
g58
NtRp2844
(dp2845
g61
(dp2846
g69
I3
ssg70
g2840
sg63
(lp2847
g1852
asbasbasbag56
(g72
g58
NtRp2848
(dp2849
g61
(dp2850
sg70
g2718
sg63
(lp2851
g56
(g77
g58
NtRp2852
(dp2853
g61
(dp2854
g81
g82
ssg70
g2848
sg63
(lp2855
S'HTTP_COOKIE'
p2856
asbag56
(g77
g58
NtRp2857
(dp2858
g61
(dp2859
g88
g89
ssg70
g2848
sg63
(lp2860
S':'
asbag56
(g77
g58
NtRp2861
(dp2862
g61
(dp2863
sg70
g2848
sg63
(lp2864
g56
(g57
g58
NtRp2865
(dp2866
g61
(dp2867
g69
I3
ssg70
g2861
sg63
(lp2868
g1874
asbasbasbag56
(g72
g58
NtRp2869
(dp2870
g61
(dp2871
sg70
g2718
sg63
(lp2872
g56
(g77
g58
NtRp2873
(dp2874
g61
(dp2875
g81
g82
ssg70
g2869
sg63
(lp2876
S'HTTP_HOST'
p2877
asbag56
(g77
g58
NtRp2878
(dp2879
g61
(dp2880
g88
g89
ssg70
g2869
sg63
(lp2881
S':'
asbag56
(g77
g58
NtRp2882
(dp2883
g61
(dp2884
sg70
g2869
sg63
(lp2885
g56
(g57
g58
NtRp2886
(dp2887
g61
(dp2888
g69
I3
ssg70
g2882
sg63
(lp2889
g1896
asbasbasbag56
(g72
g58
NtRp2890
(dp2891
g61
(dp2892
sg70
g2718
sg63
(lp2893
g56
(g77
g58
NtRp2894
(dp2895
g61
(dp2896
g81
g82
ssg70
g2890
sg63
(lp2897
S'HTTP_USER_AGENT'
p2898
asbag56
(g77
g58
NtRp2899
(dp2900
g61
(dp2901
g88
g89
ssg70
g2890
sg63
(lp2902
S':'
asbag56
(g77
g58
NtRp2903
(dp2904
g61
(dp2905
sg70
g2890
sg63
(lp2906
g56
(g57
g58
NtRp2907
(dp2908
g61
(dp2909
g69
I3
ssg70
g2903
sg63
(lp2910
g1918
asbasbasbag56
(g72
g58
NtRp2911
(dp2912
g61
(dp2913
sg70
g2718
sg63
(lp2914
g56
(g77
g58
NtRp2915
(dp2916
g61
(dp2917
g81
g82
ssg70
g2911
sg63
(lp2918
S'PATH_INFO'
p2919
asbag56
(g77
g58
NtRp2920
(dp2921
g61
(dp2922
g88
g89
ssg70
g2911
sg63
(lp2923
S':'
asbag56
(g77
g58
NtRp2924
(dp2925
g61
(dp2926
sg70
g2911
sg63
(lp2927
g56
(g57
g58
NtRp2928
(dp2929
g61
(dp2930
g69
I3
ssg70
g2924
sg63
(lp2931
g1940
asbasbasbag56
(g72
g58
NtRp2932
(dp2933
g61
(dp2934
sg70
g2718
sg63
(lp2935
g56
(g77
g58
NtRp2936
(dp2937
g61
(dp2938
g81
g82
ssg70
g2932
sg63
(lp2939
S'QUERY_STRING'
p2940
asbag56
(g77
g58
NtRp2941
(dp2942
g61
(dp2943
g88
g89
ssg70
g2932
sg63
(lp2944
S':'
asbag56
(g77
g58
NtRp2945
(dp2946
g61
(dp2947
sg70
g2932
sg63
(lp2948
g56
(g57
g58
NtRp2949
(dp2950
g61
(dp2951
g69
I3
ssg70
g2945
sg63
(lp2952
S''
asbasbasbag56
(g72
g58
NtRp2953
(dp2954
g61
(dp2955
sg70
g2718
sg63
(lp2956
g56
(g77
g58
NtRp2957
(dp2958
g61
(dp2959
g81
g82
ssg70
g2953
sg63
(lp2960
S'REMOTE_ADDR'
p2961
asbag56
(g77
g58
NtRp2962
(dp2963
g61
(dp2964
g88
g89
ssg70
g2953
sg63
(lp2965
S':'
asbag56
(g77
g58
NtRp2966
(dp2967
g61
(dp2968
sg70
g2953
sg63
(lp2969
g56
(g57
g58
NtRp2970
(dp2971
g61
(dp2972
g69
I3
ssg70
g2966
sg63
(lp2973
g189
asbasbasbag56
(g72
g58
NtRp2974
(dp2975
g61
(dp2976
sg70
g2718
sg63
(lp2977
g56
(g77
g58
NtRp2978
(dp2979
g61
(dp2980
g81
g82
ssg70
g2974
sg63
(lp2981
S'REMOTE_PORT'
p2982
asbag56
(g77
g58
NtRp2983
(dp2984
g61
(dp2985
g88
g89
ssg70
g2974
sg63
(lp2986
S':'
asbag56
(g77
g58
NtRp2987
(dp2988
g61
(dp2989
sg70
g2974
sg63
(lp2990
g56
(g57
g58
NtRp2991
(dp2992
g61
(dp2993
g69
I3
ssg70
g2987
sg63
(lp2994
g2004
asbasbasbag56
(g72
g58
NtRp2995
(dp2996
g61
(dp2997
sg70
g2718
sg63
(lp2998
g56
(g77
g58
NtRp2999
(dp3000
g61
(dp3001
g81
g82
ssg70
g2995
sg63
(lp3002
S'REQUEST_METHOD'
p3003
asbag56
(g77
g58
NtRp3004
(dp3005
g61
(dp3006
g88
g89
ssg70
g2995
sg63
(lp3007
S':'
asbag56
(g77
g58
NtRp3008
(dp3009
g61
(dp3010
sg70
g2995
sg63
(lp3011
g56
(g57
g58
NtRp3012
(dp3013
g61
(dp3014
g69
I3
ssg70
g3008
sg63
(lp3015
g2026
asbasbasbag56
(g72
g58
NtRp3016
(dp3017
g61
(dp3018
sg70
g2718
sg63
(lp3019
g56
(g77
g58
NtRp3020
(dp3021
g61
(dp3022
g81
g82
ssg70
g3016
sg63
(lp3023
S'REQUEST_URI'
p3024
asbag56
(g77
g58
NtRp3025
(dp3026
g61
(dp3027
g88
g89
ssg70
g3016
sg63
(lp3028
S':'
asbag56
(g77
g58
NtRp3029
(dp3030
g61
(dp3031
sg70
g3016
sg63
(lp3032
g56
(g57
g58
NtRp3033
(dp3034
g61
(dp3035
g69
I3
ssg70
g3029
sg63
(lp3036
g1940
asbasbasbag56
(g72
g58
NtRp3037
(dp3038
g61
(dp3039
sg70
g2718
sg63
(lp3040
g56
(g77
g58
NtRp3041
(dp3042
g61
(dp3043
g81
g82
ssg70
g3037
sg63
(lp3044
S'SCRIPT_NAME'
p3045
asbag56
(g77
g58
NtRp3046
(dp3047
g61
(dp3048
g88
g89
ssg70
g3037
sg63
(lp3049
S':'
asbag56
(g77
g58
NtRp3050
(dp3051
g61
(dp3052
sg70
g3037
sg63
(lp3053
g56
(g57
g58
NtRp3054
(dp3055
g61
(dp3056
g69
I3
ssg70
g3050
sg63
(lp3057
S''
asbasbasbag56
(g72
g58
NtRp3058
(dp3059
g61
(dp3060
sg70
g2718
sg63
(lp3061
g56
(g77
g58
NtRp3062
(dp3063
g61
(dp3064
g81
g82
ssg70
g3058
sg63
(lp3065
S'SERVER_NAME'
p3066
asbag56
(g77
g58
NtRp3067
(dp3068
g61
(dp3069
g88
g89
ssg70
g3058
sg63
(lp3070
S':'
asbag56
(g77
g58
NtRp3071
(dp3072
g61
(dp3073
sg70
g3058
sg63
(lp3074
g56
(g57
g58
NtRp3075
(dp3076
g61
(dp3077
g69
I3
ssg70
g3071
sg63
(lp3078
g2090
asbasbasbag56
(g72
g58
NtRp3079
(dp3080
g61
(dp3081
sg70
g2718
sg63
(lp3082
g56
(g77
g58
NtRp3083
(dp3084
g61
(dp3085
g81
g82
ssg70
g3079
sg63
(lp3086
S'SERVER_PORT'
p3087
asbag56
(g77
g58
NtRp3088
(dp3089
g61
(dp3090
g88
g89
ssg70
g3079
sg63
(lp3091
S':'
asbag56
(g77
g58
NtRp3092
(dp3093
g61
(dp3094
sg70
g3079
sg63
(lp3095
g56
(g57
g58
NtRp3096
(dp3097
g61
(dp3098
g69
I3
ssg70
g3092
sg63
(lp3099
g2112
asbasbasbag56
(g72
g58
NtRp3100
(dp3101
g61
(dp3102
sg70
g2718
sg63
(lp3103
g56
(g77
g58
NtRp3104
(dp3105
g61
(dp3106
g81
g82
ssg70
g3100
sg63
(lp3107
S'SERVER_PROTOCOL'
p3108
asbag56
(g77
g58
NtRp3109
(dp3110
g61
(dp3111
g88
g89
ssg70
g3100
sg63
(lp3112
S':'
asbag56
(g77
g58
NtRp3113
(dp3114
g61
(dp3115
sg70
g3100
sg63
(lp3116
g56
(g57
g58
NtRp3117
(dp3118
g61
(dp3119
g69
I3
ssg70
g3113
sg63
(lp3120
g2134
asbasbasbag56
(g72
g58
NtRp3121
(dp3122
g61
(dp3123
sg70
g2718
sg63
(lp3124
g56
(g77
g58
NtRp3125
(dp3126
g61
(dp3127
g81
g82
ssg70
g3121
sg63
(lp3128
S'SERVER_SOFTWARE'
p3129
asbag56
(g77
g58
NtRp3130
(dp3131
g61
(dp3132
g88
g89
ssg70
g3121
sg63
(lp3133
S':'
asbag56
(g77
g58
NtRp3134
(dp3135
g61
(dp3136
sg70
g3121
sg63
(lp3137
g56
(g57
g58
NtRp3138
(dp3139
g61
(dp3140
g69
I3
ssg70
g3134
sg63
(lp3141
g2156
asbasbasbag56
(g72
g58
NtRp3142
(dp3143
g61
(dp3144
sg70
g2718
sg63
(lp3145
g56
(g77
g58
NtRp3146
(dp3147
g61
(dp3148
g81
g82
ssg70
g3142
sg63
(lp3149
S'WEB2PY_ORIGINAL_URI'
p3150
asbag56
(g77
g58
NtRp3151
(dp3152
g61
(dp3153
g88
g89
ssg70
g3142
sg63
(lp3154
S':'
asbag56
(g77
g58
NtRp3155
(dp3156
g61
(dp3157
sg70
g3142
sg63
(lp3158
g56
(g57
g58
NtRp3159
(dp3160
g61
(dp3161
g69
I3
ssg70
g3155
sg63
(lp3162
g1940
asbasbasbag56
(g72
g58
NtRp3163
(dp3164
g61
(dp3165
sg70
g2718
sg63
(lp3166
g56
(g77
g58
NtRp3167
(dp3168
g61
(dp3169
g81
g82
ssg70
g3163
sg63
(lp3170
S'wsgi.errors'
p3171
asbag56
(g77
g58
NtRp3172
(dp3173
g61
(dp3174
g88
g89
ssg70
g3163
sg63
(lp3175
S':'
asbag56
(g77
g58
NtRp3176
(dp3177
g61
(dp3178
sg70
g3163
sg63
(lp3179
g56
(g57
g58
NtRp3180
(dp3181
g61
(dp3182
g69
I3
ssg70
g3176
sg63
(lp3183
S"<open file '<stderr>', mode 'w' at 0x7fd0cdd5d1e0>"
p3184
asbasbasbag56
(g72
g58
NtRp3185
(dp3186
g61
(dp3187
sg70
g2718
sg63
(lp3188
g56
(g77
g58
NtRp3189
(dp3190
g61
(dp3191
g81
g82
ssg70
g3185
sg63
(lp3192
S'wsgi.file_wrapper'
p3193
asbag56
(g77
g58
NtRp3194
(dp3195
g61
(dp3196
g88
g89
ssg70
g3185
sg63
(lp3197
S':'
asbag56
(g77
g58
NtRp3198
(dp3199
g61
(dp3200
sg70
g3185
sg63
(lp3201
g56
(g57
g58
NtRp3202
(dp3203
g61
(dp3204
g69
I3
ssg70
g3198
sg63
(lp3205
S'<class gluon.rocket.FileWrapper at 0x187cad0>'
p3206
asbasbasbag56
(g72
g58
NtRp3207
(dp3208
g61
(dp3209
sg70
g2718
sg63
(lp3210
g56
(g77
g58
NtRp3211
(dp3212
g61
(dp3213
g81
g82
ssg70
g3207
sg63
(lp3214
S'wsgi.input'
p3215
asbag56
(g77
g58
NtRp3216
(dp3217
g61
(dp3218
g88
g89
ssg70
g3207
sg63
(lp3219
S':'
asbag56
(g77
g58
NtRp3220
(dp3221
g61
(dp3222
sg70
g3207
sg63
(lp3223
g56
(g57
g58
NtRp3224
(dp3225
g61
(dp3226
g69
I3
ssg70
g3220
sg63
(lp3227
S'<cStringIO.StringO object at 0x1cb7730>'
p3228
asbasbasbag56
(g72
g58
NtRp3229
(dp3230
g61
(dp3231
sg70
g2718
sg63
(lp3232
g56
(g77
g58
NtRp3233
(dp3234
g61
(dp3235
g81
g82
ssg70
g3229
sg63
(lp3236
S'wsgi.multiprocess'
p3237
asbag56
(g77
g58
NtRp3238
(dp3239
g61
(dp3240
g88
g89
ssg70
g3229
sg63
(lp3241
S':'
asbag56
(g77
g58
NtRp3242
(dp3243
g61
(dp3244
sg70
g3229
sg63
(lp3245
g56
(g57
g58
NtRp3246
(dp3247
g61
(dp3248
g69
I3
ssg70
g3242
sg63
(lp3249
g99
asbasbasbag56
(g72
g58
NtRp3250
(dp3251
g61
(dp3252
sg70
g2718
sg63
(lp3253
g56
(g77
g58
NtRp3254
(dp3255
g61
(dp3256
g81
g82
ssg70
g3250
sg63
(lp3257
S'wsgi.multithread'
p3258
asbag56
(g77
g58
NtRp3259
(dp3260
g61
(dp3261
g88
g89
ssg70
g3250
sg63
(lp3262
S':'
asbag56
(g77
g58
NtRp3263
(dp3264
g61
(dp3265
sg70
g3250
sg63
(lp3266
g56
(g57
g58
NtRp3267
(dp3268
g61
(dp3269
g69
I3
ssg70
g3263
sg63
(lp3270
g2351
asbasbasbag56
(g72
g58
NtRp3271
(dp3272
g61
(dp3273
sg70
g2718
sg63
(lp3274
g56
(g77
g58
NtRp3275
(dp3276
g61
(dp3277
g81
g82
ssg70
g3271
sg63
(lp3278
S'wsgi.run_once'
p3279
asbag56
(g77
g58
NtRp3280
(dp3281
g61
(dp3282
g88
g89
ssg70
g3271
sg63
(lp3283
S':'
asbag56
(g77
g58
NtRp3284
(dp3285
g61
(dp3286
sg70
g3271
sg63
(lp3287
g56
(g57
g58
NtRp3288
(dp3289
g61
(dp3290
g69
I3
ssg70
g3284
sg63
(lp3291
g99
asbasbasbag56
(g72
g58
NtRp3292
(dp3293
g61
(dp3294
sg70
g2718
sg63
(lp3295
g56
(g77
g58
NtRp3296
(dp3297
g61
(dp3298
g81
g82
ssg70
g3292
sg63
(lp3299
S'wsgi.url_scheme'
p3300
asbag56
(g77
g58
NtRp3301
(dp3302
g61
(dp3303
g88
g89
ssg70
g3292
sg63
(lp3304
S':'
asbag56
(g77
g58
NtRp3305
(dp3306
g61
(dp3307
sg70
g3292
sg63
(lp3308
g56
(g57
g58
NtRp3309
(dp3310
g61
(dp3311
g69
I3
ssg70
g3305
sg63
(lp3312
g2394
asbasbasbag56
(g72
g58
NtRp3313
(dp3314
g61
(dp3315
sg70
g2718
sg63
(lp3316
g56
(g77
g58
NtRp3317
(dp3318
g61
(dp3319
g81
g82
ssg70
g3313
sg63
(lp3320
S'wsgi.version'
p3321
asbag56
(g77
g58
NtRp3322
(dp3323
g61
(dp3324
g88
g89
ssg70
g3313
sg63
(lp3325
S':'
asbag56
(g77
g58
NtRp3326
(dp3327
g61
(dp3328
sg70
g3313
sg63
(lp3329
g56
(g57
g58
NtRp3330
(dp3331
g61
(dp3332
g69
I3
ssg70
g3326
sg63
(lp3333
S'1'
asbasbasbasbasbasbasbasbasbasbasbasbasbsS'frames'
p3334
(lp3335
(dp3336
S'file'
p3337
S'/home/strzel_a/web2py/gluon/restricted.py'
p3338
sS'dump'
p3339
(dp3340
S'environment'
p3341
S"{'A': <class 'gluon.html.A'>, 'Auth': <class 'gluon.tools.Auth'>, 'B': <class 'gluon.html.B'>, 'BEAUTIFY': <class 'gluon.html.BEAUTIFY'>, 'BODY': <class 'gluon.html.BODY'>, 'BR': <class 'gluon.html.BR'>, 'CENTER': <class 'gluon.html.CENTER'>, 'CLEANUP': <class 'gluon.validators.CLEANUP'>, 'CODE': <class 'gluon.html.CODE'>, 'CRYPT': <class 'gluon.validators.CRYPT'>, ...}"
p3342
sS'ccode'
p3343
S'<code object <module> at 0x2b4d828, file "/home/...eb2py/applications/bench/models/menu.py", line 7>'
p3344
ssS'lnum'
p3345
I181
sS'lines'
p3346
(dp3347
I176
S'    try:'
p3348
sI177
S'        if type(code) == types.CodeType:'
p3349
sI178
S'            ccode = code'
p3350
sI179
S'        else:'
p3351
sI180
S'            ccode = compile2(code,layer)'
p3352
sI181
S'        exec ccode in environment'
p3353
sI182
S'    except HTTP:'
p3354
sI183
S'        raise'
p3355
sI184
S'    except Exception:'
p3356
sI185
S'        # XXX Show exception in Wing IDE if running in debugger'
p3357
ssS'call'
p3358
S'(code="# -*- coding: utf-8 -*-\\n\\n#######################... OUTCSS)]\\n    js_files = [URL(\'static\', OUTJS)]\\n\\n", environment={\'A\': <class \'gluon.html.A\'>, \'Auth\': <class \'gluon.tools.Auth\'>, \'B\': <class \'gluon.html.B\'>, \'BEAUTIFY\': <class \'gluon.html.BEAUTIFY\'>, \'BODY\': <class \'gluon.html.BODY\'>, \'BR\': <class \'gluon.html.BR\'>, \'CENTER\': <class \'gluon.html.CENTER\'>, \'CLEANUP\': <class \'gluon.validators.CLEANUP\'>, \'CODE\': <class \'gluon.html.CODE\'>, \'CRYPT\': <class \'gluon.validators.CRYPT\'>, ...}, layer=\'/home/strzel_a/web2py/applications/bench/models/menu.py\')'
p3359
sS'func'
p3360
S'restricted'
p3361
sa(dp3362
g3337
S'/home/strzel_a/web2py/applications/bench/models/menu.py'
p3363
sg3339
(dp3364
S'OUTJS'
p3365
S'undefined'
p3366
sS'minify_prod'
p3367
S'<function minify_prod>'
p3368
sS'OUTCSS'
p3369
g3366
ssg3345
I71
sg3346
(dp3370
I65
S'    return OUTJS, OUTCSS'
p3371
sI66
S''
sI67
S'#'
sI68
S'#'
sI69
S'#'
sI70
S'if prod==True:'
p3372
sI71
S'    (OUTJS, OUTCSS) = minify_prod()'
p3373
sI72
S"    css_files = [URL('static', OUTCSS)]"
p3374
sI73
S"    js_files = [URL('static', OUTJS)]"
p3375
sI74
S''
ssg3358
S'()'
p3376
sg3360
S'<module>'
p3377
sa(dp3378
g3337
S'/home/strzel_a/web2py/applications/bench/models/menu.py'
p3379
sg3339
(dp3380
S'global request'
p3381
S"<Storage {'function': 'index', 'body': <cStringI....23-12-49.b040d4b6-e3d5-4da4-a9c0-48745aabebab'}>"
p3382
sS'request.folder'
p3383
S"'/home/strzel_a/web2py/applications/bench/'"
p3384
sS'compress'
p3385
S"<module 'applications.bench.modules.pack' from 'applications/bench/modules/pack.py'>"
p3386
sS'compress.process_css'
p3387
S'<function process_css>'
p3388
sS'OUTCSS'
p3389
g3366
sS'global css_files'
p3390
S"['/static/css/base.css', '/static/css/main.css']"
p3391
ssg3345
I63
sg3346
(dp3392
I64
S'    #OUTJS = compress.process_js(js_files, app_name)'
p3393
sI65
S'    return OUTJS, OUTCSS'
p3394
sI66
S''
sI67
S'#'
sI58
S'    #'
p3395
sI59
S'    logger.info("+----------- File minification")'
p3396
sI60
S'    global css_files'
p3397
sI61
S'    global js_files'
p3398
sI62
S"    compress = local_import('pack')"
p3399
sI63
S'    OUTCSS = compress.process_css(css_files, request.folder)'
p3400
ssg3358
S'()'
p3401
sg3360
S'minify_prod'
p3402
sa(dp3403
g3337
S'/home/strzel_a/web2py/applications/bench/modules/pack.py'
p3404
sg3339
(dp3405
S'app_name'
p3406
g3366
sS'global os'
p3407
S"<module 'os' from '/usr/lib/python2.6/os.pyc'>"
p3408
sS'PATH'
p3409
g3366
sS'os.path.join'
p3410
S'<function join>'
p3411
sS'global OUTCSS'
p3412
S"'min.css'"
p3413
sS'os.path'
p3414
S"<module 'posixpath' from '/usr/lib/python2.6/posixpath.pyc'>"
p3415
ssg3345
I72
sg3346
(dp3416
I66
S"    out = open(out_file, 'wb')"
p3417
sI67
S'    for t in css_files:'
p3418
sI68
S'        print "Processing " + t'
p3419
sI69
S"        fd1 = open(app_path + t, 'r')"
p3420
sI70
S'        compress_css(fd1, out)'
p3421
sI71
S'        fd1.close()'
p3422
sI72
S'    out.close()'
p3423
sI73
S'    print "OUT : " + out_file'
p3424
sI74
S'    return OUTCSS'
p3425
sI75
S''
ssg3358
S"(css_files=['/static/css/base.css', '/static/css/main.css'], app_path='/home/strzel_a/web2py/applications/bench/')"
p3426
sg3360
S'process_css'
p3427
sasS'pyver'
p3428
S'Python 2.6.6: /usr/bin/python'
p3429
sS'session'
p3430
g56
(g57
g58
NtRp3431
(dp3432
g61
(dp3433
sg63
(lp3434
g56
(g65
g58
NtRp3435
(dp3436
g61
(dp3437
g69
I5
ssg70
Nsg63
(lp3438
g56
(g72
g58
NtRp3439
(dp3440
g61
(dp3441
sg70
g3435
sg63
(lp3442
g56
(g77
g58
NtRp3443
(dp3444
g61
(dp3445
g81
g82
ssg70
g3439
sg63
(lp3446
S'last_query'
p3447
asbag56
(g77
g58
NtRp3448
(dp3449
g61
(dp3450
g88
g89
ssg70
g3439
sg63
(lp3451
S':'
asbag56
(g77
g58
NtRp3452
(dp3453
g61
(dp3454
sg70
g3439
sg63
(lp3455
g56
(g57
g58
NtRp3456
(dp3457
g61
(dp3458
g69
I5
ssg70
g3452
sg63
(lp3459
S'db.articles.id>0'
p3460
asbasbasbasbasbsS'etype'
p3461
S"<type 'exceptions.NameError'>"
p3462
sS'date'
p3463
S'Thu Apr 28 23:12:49 2011'
p3464
sS'response'
p3465
g56
(g57
g58
NtRp3466
(dp3467
g61
(dp3468
sg63
(lp3469
g56
(g65
g58
NtRp3470
(dp3471
g61
(dp3472
g69
I5
ssg70
Nsg63
(lp3473
g56
(g72
g58
NtRp3474
(dp3475
g61
(dp3476
sg70
g3470
sg63
(lp3477
g56
(g77
g58
NtRp3478
(dp3479
g61
(dp3480
g81
g82
ssg70
g3474
sg63
(lp3481
g154
asbag56
(g77
g58
NtRp3482
(dp3483
g61
(dp3484
g88
g89
ssg70
g3474
sg63
(lp3485
S':'
asbag56
(g77
g58
NtRp3486
(dp3487
g61
(dp3488
sg70
g3474
sg63
(lp3489
g56
(g57
g58
NtRp3490
(dp3491
g61
(dp3492
g69
I5
ssg70
g3486
sg63
(lp3493
S'<cStringIO.StringO object at 0x1cc1c70>'
p3494
asbasbasbag56
(g72
g58
NtRp3495
(dp3496
g61
(dp3497
sg70
g3470
sg63
(lp3498
g56
(g77
g58
NtRp3499
(dp3500
g61
(dp3501
g81
g82
ssg70
g3495
sg63
(lp3502
g220
asbag56
(g77
g58
NtRp3503
(dp3504
g61
(dp3505
g88
g89
ssg70
g3495
sg63
(lp3506
S':'
asbag56
(g77
g58
NtRp3507
(dp3508
g61
(dp3509
sg70
g3495
sg63
(lp3510
g56
(g57
g58
NtRp3511
(dp3512
g61
(dp3513
g69
I5
ssg70
g3507
sg63
(lp3514
g56
(g65
g58
NtRp3515
(dp3516
g61
(dp3517
g69
I4
ssg70
Nsg63
(lp3518
g56
(g72
g58
NtRp3519
(dp3520
g61
(dp3521
sg70
g3515
sg63
(lp3522
g56
(g77
g58
NtRp3523
(dp3524
g61
(dp3525
g81
g82
ssg70
g3519
sg63
(lp3526
S'session_id_bench'
p3527
asbag56
(g77
g58
NtRp3528
(dp3529
g61
(dp3530
g88
g89
ssg70
g3519
sg63
(lp3531
S':'
asbag56
(g77
g58
NtRp3532
(dp3533
g61
(dp3534
sg70
g3519
sg63
(lp3535
g56
(g57
g58
NtRp3536
(dp3537
g61
(dp3538
g69
I4
ssg70
g3532
sg63
(lp3539
g56
(g65
g58
NtRp3540
(dp3541
g61
(dp3542
g69
I3
ssg70
Nsg63
(lp3543
g56
(g72
g58
NtRp3544
(dp3545
g61
(dp3546
sg70
g3540
sg63
(lp3547
g56
(g77
g58
NtRp3548
(dp3549
g61
(dp3550
g81
g82
ssg70
g3544
sg63
(lp3551
g270
asbag56
(g77
g58
NtRp3552
(dp3553
g61
(dp3554
g88
g89
ssg70
g3544
sg63
(lp3555
S':'
asbag56
(g77
g58
NtRp3556
(dp3557
g61
(dp3558
sg70
g3544
sg63
(lp3559
g56
(g57
g58
NtRp3560
(dp3561
g61
(dp3562
g69
I3
ssg70
g3556
sg63
(lp3563
S''
asbasbasbag56
(g72
g58
NtRp3564
(dp3565
g61
(dp3566
sg70
g3540
sg63
(lp3567
g56
(g77
g58
NtRp3568
(dp3569
g61
(dp3570
g81
g82
ssg70
g3564
sg63
(lp3571
g291
asbag56
(g77
g58
NtRp3572
(dp3573
g61
(dp3574
g88
g89
ssg70
g3564
sg63
(lp3575
S':'
asbag56
(g77
g58
NtRp3576
(dp3577
g61
(dp3578
sg70
g3564
sg63
(lp3579
g56
(g57
g58
NtRp3580
(dp3581
g61
(dp3582
g69
I3
ssg70
g3576
sg63
(lp3583
S''
asbasbasbag56
(g72
g58
NtRp3584
(dp3585
g61
(dp3586
sg70
g3540
sg63
(lp3587
g56
(g77
g58
NtRp3588
(dp3589
g61
(dp3590
g81
g82
ssg70
g3584
sg63
(lp3591
g312
asbag56
(g77
g58
NtRp3592
(dp3593
g61
(dp3594
g88
g89
ssg70
g3584
sg63
(lp3595
S':'
asbag56
(g77
g58
NtRp3596
(dp3597
g61
(dp3598
sg70
g3584
sg63
(lp3599
g56
(g57
g58
NtRp3600
(dp3601
g61
(dp3602
g69
I3
ssg70
g3596
sg63
(lp3603
S''
asbasbasbag56
(g72
g58
NtRp3604
(dp3605
g61
(dp3606
sg70
g3540
sg63
(lp3607
g56
(g77
g58
NtRp3608
(dp3609
g61
(dp3610
g81
g82
ssg70
g3604
sg63
(lp3611
g333
asbag56
(g77
g58
NtRp3612
(dp3613
g61
(dp3614
g88
g89
ssg70
g3604
sg63
(lp3615
S':'
asbag56
(g77
g58
NtRp3616
(dp3617
g61
(dp3618
sg70
g3604
sg63
(lp3619
g56
(g57
g58
NtRp3620
(dp3621
g61
(dp3622
g69
I3
ssg70
g3616
sg63
(lp3623
S''
asbasbasbag56
(g72
g58
NtRp3624
(dp3625
g61
(dp3626
sg70
g3540
sg63
(lp3627
g56
(g77
g58
NtRp3628
(dp3629
g61
(dp3630
g81
g82
ssg70
g3624
sg63
(lp3631
g354
asbag56
(g77
g58
NtRp3632
(dp3633
g61
(dp3634
g88
g89
ssg70
g3624
sg63
(lp3635
S':'
asbag56
(g77
g58
NtRp3636
(dp3637
g61
(dp3638
sg70
g3624
sg63
(lp3639
g56
(g57
g58
NtRp3640
(dp3641
g61
(dp3642
g69
I3
ssg70
g3636
sg63
(lp3643
S''
asbasbasbag56
(g72
g58
NtRp3644
(dp3645
g61
(dp3646
sg70
g3540
sg63
(lp3647
g56
(g77
g58
NtRp3648
(dp3649
g61
(dp3650
g81
g82
ssg70
g3644
sg63
(lp3651
g375
asbag56
(g77
g58
NtRp3652
(dp3653
g61
(dp3654
g88
g89
ssg70
g3644
sg63
(lp3655
S':'
asbag56
(g77
g58
NtRp3656
(dp3657
g61
(dp3658
sg70
g3644
sg63
(lp3659
g56
(g57
g58
NtRp3660
(dp3661
g61
(dp3662
g69
I3
ssg70
g3656
sg63
(lp3663
S'/'
asbasbasbag56
(g72
g58
NtRp3664
(dp3665
g61
(dp3666
sg70
g3540
sg63
(lp3667
g56
(g77
g58
NtRp3668
(dp3669
g61
(dp3670
g81
g82
ssg70
g3664
sg63
(lp3671
g396
asbag56
(g77
g58
NtRp3672
(dp3673
g61
(dp3674
g88
g89
ssg70
g3664
sg63
(lp3675
S':'
asbag56
(g77
g58
NtRp3676
(dp3677
g61
(dp3678
sg70
g3664
sg63
(lp3679
g56
(g57
g58
NtRp3680
(dp3681
g61
(dp3682
g69
I3
ssg70
g3676
sg63
(lp3683
S''
asbasbasbag56
(g72
g58
NtRp3684
(dp3685
g61
(dp3686
sg70
g3540
sg63
(lp3687
g56
(g77
g58
NtRp3688
(dp3689
g61
(dp3690
g81
g82
ssg70
g3684
sg63
(lp3691
g417
asbag56
(g77
g58
NtRp3692
(dp3693
g61
(dp3694
g88
g89
ssg70
g3684
sg63
(lp3695
S':'
asbag56
(g77
g58
NtRp3696
(dp3697
g61
(dp3698
sg70
g3684
sg63
(lp3699
g56
(g57
g58
NtRp3700
(dp3701
g61
(dp3702
g69
I3
ssg70
g3696
sg63
(lp3703
S''
asbasbasbasbasbasbasbasbasbasbasbag56
(g72
g58
NtRp3704
(dp3705
g61
(dp3706
sg70
g3470
sg63
(lp3707
g56
(g77
g58
NtRp3708
(dp3709
g61
(dp3710
g81
g82
ssg70
g3704
sg63
(lp3711
S'files'
p3712
asbag56
(g77
g58
NtRp3713
(dp3714
g61
(dp3715
g88
g89
ssg70
g3704
sg63
(lp3716
S':'
asbag56
(g77
g58
NtRp3717
(dp3718
g61
(dp3719
sg70
g3704
sg63
(lp3720
g56
(g57
g58
NtRp3721
(dp3722
g61
(dp3723
g69
I5
ssg70
g3717
sg63
(lp3724
g56
(g65
g58
NtRp3725
(dp3726
g61
(dp3727
g69
I4
ssg70
Nsg63
(lp3728
sbasbasbasbag56
(g72
g58
NtRp3729
(dp3730
g61
(dp3731
sg70
g3470
sg63
(lp3732
g56
(g77
g58
NtRp3733
(dp3734
g61
(dp3735
g81
g82
ssg70
g3729
sg63
(lp3736
S'flash'
p3737
asbag56
(g77
g58
NtRp3738
(dp3739
g61
(dp3740
g88
g89
ssg70
g3729
sg63
(lp3741
S':'
asbag56
(g77
g58
NtRp3742
(dp3743
g61
(dp3744
sg70
g3729
sg63
(lp3745
g56
(g57
g58
NtRp3746
(dp3747
g61
(dp3748
g69
I5
ssg70
g3742
sg63
(lp3749
S''
asbasbasbag56
(g72
g58
NtRp3750
(dp3751
g61
(dp3752
sg70
g3470
sg63
(lp3753
g56
(g77
g58
NtRp3754
(dp3755
g61
(dp3756
g81
g82
ssg70
g3750
sg63
(lp3757
S'headers'
p3758
asbag56
(g77
g58
NtRp3759
(dp3760
g61
(dp3761
g88
g89
ssg70
g3750
sg63
(lp3762
S':'
asbag56
(g77
g58
NtRp3763
(dp3764
g61
(dp3765
sg70
g3750
sg63
(lp3766
g56
(g57
g58
NtRp3767
(dp3768
g61
(dp3769
g69
I5
ssg70
g3763
sg63
(lp3770
g56
(g65
g58
NtRp3771
(dp3772
g61
(dp3773
g69
I4
ssg70
Nsg63
(lp3774
g56
(g72
g58
NtRp3775
(dp3776
g61
(dp3777
sg70
g3771
sg63
(lp3778
g56
(g77
g58
NtRp3779
(dp3780
g61
(dp3781
g81
g82
ssg70
g3775
sg63
(lp3782
S'Cache-Control'
p3783
asbag56
(g77
g58
NtRp3784
(dp3785
g61
(dp3786
g88
g89
ssg70
g3775
sg63
(lp3787
S':'
asbag56
(g77
g58
NtRp3788
(dp3789
g61
(dp3790
sg70
g3775
sg63
(lp3791
g56
(g57
g58
NtRp3792
(dp3793
g61
(dp3794
g69
I4
ssg70
g3788
sg63
(lp3795
S'no-store, no-cache, must-revalidate, post-check=0, pre-check=0'
p3796
asbasbasbag56
(g72
g58
NtRp3797
(dp3798
g61
(dp3799
sg70
g3771
sg63
(lp3800
g56
(g77
g58
NtRp3801
(dp3802
g61
(dp3803
g81
g82
ssg70
g3797
sg63
(lp3804
S'Content-Type'
p3805
asbag56
(g77
g58
NtRp3806
(dp3807
g61
(dp3808
g88
g89
ssg70
g3797
sg63
(lp3809
S':'
asbag56
(g77
g58
NtRp3810
(dp3811
g61
(dp3812
sg70
g3797
sg63
(lp3813
g56
(g57
g58
NtRp3814
(dp3815
g61
(dp3816
g69
I4
ssg70
g3810
sg63
(lp3817
S'text/html; charset=utf-8'
p3818
asbasbasbag56
(g72
g58
NtRp3819
(dp3820
g61
(dp3821
sg70
g3771
sg63
(lp3822
g56
(g77
g58
NtRp3823
(dp3824
g61
(dp3825
g81
g82
ssg70
g3819
sg63
(lp3826
S'Expires'
p3827
asbag56
(g77
g58
NtRp3828
(dp3829
g61
(dp3830
g88
g89
ssg70
g3819
sg63
(lp3831
S':'
asbag56
(g77
g58
NtRp3832
(dp3833
g61
(dp3834
sg70
g3819
sg63
(lp3835
g56
(g57
g58
NtRp3836
(dp3837
g61
(dp3838
g69
I4
ssg70
g3832
sg63
(lp3839
S'Thu, 28 Apr 2011 21:12:49 GMT'
p3840
asbasbasbag56
(g72
g58
NtRp3841
(dp3842
g61
(dp3843
sg70
g3771
sg63
(lp3844
g56
(g77
g58
NtRp3845
(dp3846
g61
(dp3847
g81
g82
ssg70
g3841
sg63
(lp3848
S'Pragma'
p3849
asbag56
(g77
g58
NtRp3850
(dp3851
g61
(dp3852
g88
g89
ssg70
g3841
sg63
(lp3853
S':'
asbag56
(g77
g58
NtRp3854
(dp3855
g61
(dp3856
sg70
g3841
sg63
(lp3857
g56
(g57
g58
NtRp3858
(dp3859
g61
(dp3860
g69
I4
ssg70
g3854
sg63
(lp3861
S'no-cache'
p3862
asbasbasbasbasbasbasbag56
(g72
g58
NtRp3863
(dp3864
g61
(dp3865
sg70
g3470
sg63
(lp3866
g56
(g77
g58
NtRp3867
(dp3868
g61
(dp3869
g81
g82
ssg70
g3863
sg63
(lp3870
S'menu'
p3871
asbag56
(g77
g58
NtRp3872
(dp3873
g61
(dp3874
g88
g89
ssg70
g3863
sg63
(lp3875
S':'
asbag56
(g77
g58
NtRp3876
(dp3877
g61
(dp3878
sg70
g3863
sg63
(lp3879
g56
(g57
g58
NtRp3880
(dp3881
g61
(dp3882
g69
I5
ssg70
g3876
sg63
(lp3883
g56
(g65
g58
NtRp3884
(dp3885
g61
(dp3886
g69
I4
ssg70
Nsg63
(lp3887
sbasbasbasbag56
(g72
g58
NtRp3888
(dp3889
g61
(dp3890
sg70
g3470
sg63
(lp3891
g56
(g77
g58
NtRp3892
(dp3893
g61
(dp3894
g81
g82
ssg70
g3888
sg63
(lp3895
S'meta'
p3896
asbag56
(g77
g58
NtRp3897
(dp3898
g61
(dp3899
g88
g89
ssg70
g3888
sg63
(lp3900
S':'
asbag56
(g77
g58
NtRp3901
(dp3902
g61
(dp3903
sg70
g3888
sg63
(lp3904
g56
(g57
g58
NtRp3905
(dp3906
g61
(dp3907
g69
I5
ssg70
g3901
sg63
(lp3908
g56
(g65
g58
NtRp3909
(dp3910
g61
(dp3911
g69
I4
ssg70
Nsg63
(lp3912
g56
(g72
g58
NtRp3913
(dp3914
g61
(dp3915
sg70
g3909
sg63
(lp3916
g56
(g77
g58
NtRp3917
(dp3918
g61
(dp3919
g81
g82
ssg70
g3913
sg63
(lp3920
S'author'
p3921
asbag56
(g77
g58
NtRp3922
(dp3923
g61
(dp3924
g88
g89
ssg70
g3913
sg63
(lp3925
S':'
asbag56
(g77
g58
NtRp3926
(dp3927
g61
(dp3928
sg70
g3913
sg63
(lp3929
g56
(g57
g58
NtRp3930
(dp3931
g61
(dp3932
g69
I4
ssg70
g3926
sg63
(lp3933
S'Strzelewicz Alexandre'
p3934
asbasbasbag56
(g72
g58
NtRp3935
(dp3936
g61
(dp3937
sg70
g3909
sg63
(lp3938
g56
(g77
g58
NtRp3939
(dp3940
g61
(dp3941
g81
g82
ssg70
g3935
sg63
(lp3942
S'copyright'
p3943
asbag56
(g77
g58
NtRp3944
(dp3945
g61
(dp3946
g88
g89
ssg70
g3935
sg63
(lp3947
S':'
asbag56
(g77
g58
NtRp3948
(dp3949
g61
(dp3950
sg70
g3935
sg63
(lp3951
g56
(g57
g58
NtRp3952
(dp3953
g61
(dp3954
g69
I4
ssg70
g3948
sg63
(lp3955
S'Copyright 2010-2012'
p3956
asbasbasbag56
(g72
g58
NtRp3957
(dp3958
g61
(dp3959
sg70
g3909
sg63
(lp3960
g56
(g77
g58
NtRp3961
(dp3962
g61
(dp3963
g81
g82
ssg70
g3957
sg63
(lp3964
S'description'
p3965
asbag56
(g77
g58
NtRp3966
(dp3967
g61
(dp3968
g88
g89
ssg70
g3957
sg63
(lp3969
S':'
asbag56
(g77
g58
NtRp3970
(dp3971
g61
(dp3972
sg70
g3957
sg63
(lp3973
g56
(g57
g58
NtRp3974
(dp3975
g61
(dp3976
g69
I4
ssg70
g3970
sg63
(lp3977
S''
asbasbasbag56
(g72
g58
NtRp3978
(dp3979
g61
(dp3980
sg70
g3909
sg63
(lp3981
g56
(g77
g58
NtRp3982
(dp3983
g61
(dp3984
g81
g82
ssg70
g3978
sg63
(lp3985
S'generator'
p3986
asbag56
(g77
g58
NtRp3987
(dp3988
g61
(dp3989
g88
g89
ssg70
g3978
sg63
(lp3990
S':'
asbag56
(g77
g58
NtRp3991
(dp3992
g61
(dp3993
sg70
g3978
sg63
(lp3994
g56
(g57
g58
NtRp3995
(dp3996
g61
(dp3997
g69
I4
ssg70
g3991
sg63
(lp3998
S''
asbasbasbag56
(g72
g58
NtRp3999
(dp4000
g61
(dp4001
sg70
g3909
sg63
(lp4002
g56
(g77
g58
NtRp4003
(dp4004
g61
(dp4005
g81
g82
ssg70
g3999
sg63
(lp4006
S'keywords'
p4007
asbag56
(g77
g58
NtRp4008
(dp4009
g61
(dp4010
g88
g89
ssg70
g3999
sg63
(lp4011
S':'
asbag56
(g77
g58
NtRp4012
(dp4013
g61
(dp4014
sg70
g3999
sg63
(lp4015
g56
(g57
g58
NtRp4016
(dp4017
g61
(dp4018
g69
I4
ssg70
g4012
sg63
(lp4019
S''
asbasbasbasbasbasbasbag56
(g72
g58
NtRp4020
(dp4021
g61
(dp4022
sg70
g3470
sg63
(lp4023
g56
(g77
g58
NtRp4024
(dp4025
g61
(dp4026
g81
g82
ssg70
g4020
sg63
(lp4027
S'postprocessing'
p4028
asbag56
(g77
g58
NtRp4029
(dp4030
g61
(dp4031
g88
g89
ssg70
g4020
sg63
(lp4032
S':'
asbag56
(g77
g58
NtRp4033
(dp4034
g61
(dp4035
sg70
g4020
sg63
(lp4036
g56
(g57
g58
NtRp4037
(dp4038
g61
(dp4039
g69
I5
ssg70
g4033
sg63
(lp4040
g56
(g65
g58
NtRp4041
(dp4042
g61
(dp4043
g69
I4
ssg70
Nsg63
(lp4044
sbasbasbasbag56
(g72
g58
NtRp4045
(dp4046
g61
(dp4047
sg70
g3470
sg63
(lp4048
g56
(g77
g58
NtRp4049
(dp4050
g61
(dp4051
g81
g82
ssg70
g4045
sg63
(lp4052
S'session_file'
p4053
asbag56
(g77
g58
NtRp4054
(dp4055
g61
(dp4056
g88
g89
ssg70
g4045
sg63
(lp4057
S':'
asbag56
(g77
g58
NtRp4058
(dp4059
g61
(dp4060
sg70
g4045
sg63
(lp4061
g56
(g57
g58
NtRp4062
(dp4063
g61
(dp4064
g69
I5
ssg70
g4058
sg63
(lp4065
S"<open file '/home/strzel_a/web2py/applications/bench/sessions/127.0.0.1-bd75bc63-5cd9-4975-a78e-056513a6b389', mode 'rb+' at 0x24aa5d0>"
p4066
asbasbasbag56
(g72
g58
NtRp4067
(dp4068
g61
(dp4069
sg70
g3470
sg63
(lp4070
g56
(g77
g58
NtRp4071
(dp4072
g61
(dp4073
g81
g82
ssg70
g4067
sg63
(lp4074
S'session_filename'
p4075
asbag56
(g77
g58
NtRp4076
(dp4077
g61
(dp4078
g88
g89
ssg70
g4067
sg63
(lp4079
S':'
asbag56
(g77
g58
NtRp4080
(dp4081
g61
(dp4082
sg70
g4067
sg63
(lp4083
g56
(g57
g58
NtRp4084
(dp4085
g61
(dp4086
g69
I5
ssg70
g4080
sg63
(lp4087
S'/home/strzel_a/web2py/applications/bench/sessions/127.0.0.1-bd75bc63-5cd9-4975-a78e-056513a6b389'
p4088
asbasbasbag56
(g72
g58
NtRp4089
(dp4090
g61
(dp4091
sg70
g3470
sg63
(lp4092
g56
(g77
g58
NtRp4093
(dp4094
g61
(dp4095
g81
g82
ssg70
g4089
sg63
(lp4096
S'session_id'
p4097
asbag56
(g77
g58
NtRp4098
(dp4099
g61
(dp4100
g88
g89
ssg70
g4089
sg63
(lp4101
S':'
asbag56
(g77
g58
NtRp4102
(dp4103
g61
(dp4104
sg70
g4089
sg63
(lp4105
g56
(g57
g58
NtRp4106
(dp4107
g61
(dp4108
g69
I5
ssg70
g4102
sg63
(lp4109
S'127.0.0.1-bd75bc63-5cd9-4975-a78e-056513a6b389'
p4110
asbasbasbag56
(g72
g58
NtRp4111
(dp4112
g61
(dp4113
sg70
g3470
sg63
(lp4114
g56
(g77
g58
NtRp4115
(dp4116
g61
(dp4117
g81
g82
ssg70
g4111
sg63
(lp4118
S'session_id_name'
p4119
asbag56
(g77
g58
NtRp4120
(dp4121
g61
(dp4122
g88
g89
ssg70
g4111
sg63
(lp4123
S':'
asbag56
(g77
g58
NtRp4124
(dp4125
g61
(dp4126
sg70
g4111
sg63
(lp4127
g56
(g57
g58
NtRp4128
(dp4129
g61
(dp4130
g69
I5
ssg70
g4124
sg63
(lp4131
g3527
asbasbasbag56
(g72
g58
NtRp4132
(dp4133
g61
(dp4134
sg70
g3470
sg63
(lp4135
g56
(g77
g58
NtRp4136
(dp4137
g61
(dp4138
g81
g82
ssg70
g4132
sg63
(lp4139
S'session_locked'
p4140
asbag56
(g77
g58
NtRp4141
(dp4142
g61
(dp4143
g88
g89
ssg70
g4132
sg63
(lp4144
S':'
asbag56
(g77
g58
NtRp4145
(dp4146
g61
(dp4147
sg70
g4132
sg63
(lp4148
g56
(g57
g58
NtRp4149
(dp4150
g61
(dp4151
g69
I5
ssg70
g4145
sg63
(lp4152
g2351
asbasbasbag56
(g72
g58
NtRp4153
(dp4154
g61
(dp4155
sg70
g3470
sg63
(lp4156
g56
(g77
g58
NtRp4157
(dp4158
g61
(dp4159
g81
g82
ssg70
g4153
sg63
(lp4160
S'session_new'
p4161
asbag56
(g77
g58
NtRp4162
(dp4163
g61
(dp4164
g88
g89
ssg70
g4153
sg63
(lp4165
S':'
asbag56
(g77
g58
NtRp4166
(dp4167
g61
(dp4168
sg70
g4153
sg63
(lp4169
g56
(g57
g58
NtRp4170
(dp4171
g61
(dp4172
g69
I5
ssg70
g4166
sg63
(lp4173
g99
asbasbasbag56
(g72
g58
NtRp4174
(dp4175
g61
(dp4176
sg70
g3470
sg63
(lp4177
g56
(g77
g58
NtRp4178
(dp4179
g61
(dp4180
g81
g82
ssg70
g4174
sg63
(lp4181
S'status'
p4182
asbag56
(g77
g58
NtRp4183
(dp4184
g61
(dp4185
g88
g89
ssg70
g4174
sg63
(lp4186
S':'
asbag56
(g77
g58
NtRp4187
(dp4188
g61
(dp4189
sg70
g4174
sg63
(lp4190
g56
(g57
g58
NtRp4191
(dp4192
g61
(dp4193
g69
I5
ssg70
g4187
sg63
(lp4194
S'200'
p4195
asbasbasbag56
(g72
g58
NtRp4196
(dp4197
g61
(dp4198
sg70
g3470
sg63
(lp4199
g56
(g77
g58
NtRp4200
(dp4201
g61
(dp4202
g81
g82
ssg70
g4196
sg63
(lp4203
S'subtitle'
p4204
asbag56
(g77
g58
NtRp4205
(dp4206
g61
(dp4207
g88
g89
ssg70
g4196
sg63
(lp4208
S':'
asbag56
(g77
g58
NtRp4209
(dp4210
g61
(dp4211
sg70
g4196
sg63
(lp4212
g56
(g57
g58
NtRp4213
(dp4214
g61
(dp4215
g69
I5
ssg70
g4209
sg63
(lp4216
cgluon.languages
lazyT_unpickle
p4217
(S's\r\x00\x00\x00customize me!'
tRp4218
asbasbasbag56
(g72
g58
NtRp4219
(dp4220
g61
(dp4221
sg70
g3470
sg63
(lp4222
g56
(g77
g58
NtRp4223
(dp4224
g61
(dp4225
g81
g82
ssg70
g4219
sg63
(lp4226
S'title'
p4227
asbag56
(g77
g58
NtRp4228
(dp4229
g61
(dp4230
g88
g89
ssg70
g4219
sg63
(lp4231
S':'
asbag56
(g77
g58
NtRp4232
(dp4233
g61
(dp4234
sg70
g4219
sg63
(lp4235
g56
(g57
g58
NtRp4236
(dp4237
g61
(dp4238
g69
I5
ssg70
g4232
sg63
(lp4239
S'Template app'
p4240
asbasbasbag56
(g72
g58
NtRp4241
(dp4242
g61
(dp4243
sg70
g3470
sg63
(lp4244
g56
(g77
g58
NtRp4245
(dp4246
g61
(dp4247
g81
g82
ssg70
g4241
sg63
(lp4248
g2633
asbag56
(g77
g58
NtRp4249
(dp4250
g61
(dp4251
g88
g89
ssg70
g4241
sg63
(lp4252
S':'
asbag56
(g77
g58
NtRp4253
(dp4254
g61
(dp4255
sg70
g4241
sg63
(lp4256
g56
(g57
g58
NtRp4257
(dp4258
g61
(dp4259
g69
I5
ssg70
g4253
sg63
(lp4260
g2646
asbasbasbag56
(g72
g58
NtRp4261
(dp4262
g61
(dp4263
sg70
g3470
sg63
(lp4264
g56
(g77
g58
NtRp4265
(dp4266
g61
(dp4267
g81
g82
ssg70
g4261
sg63
(lp4268
S'view'
p4269
asbag56
(g77
g58
NtRp4270
(dp4271
g61
(dp4272
g88
g89
ssg70
g4261
sg63
(lp4273
S':'
asbag56
(g77
g58
NtRp4274
(dp4275
g61
(dp4276
sg70
g4261
sg63
(lp4277
g56
(g57
g58
NtRp4278
(dp4279
g61
(dp4280
g69
I5
ssg70
g4274
sg63
(lp4281
S'default/index.html'
p4282
asbasbasbasbasbsS'locals'
p4283
(dp4284
S'fd1'
p4285
S"<closed file '/home/strzel_a/web2py/applications/bench//static/css/main.css', mode 'r'>"
p4286
sS'app_path'
p4287
S"'/home/strzel_a/web2py/applications/bench/'"
p4288
sS'css_files'
p4289
S"['/static/css/base.css', '/static/css/main.css']"
p4290
sS't'
S"'/static/css/main.css'"
p4291
sS'out'
p4292
S"<closed file '/home/strzel_a/web2py/applications/bench/static/min.css', mode 'wb'>"
p4293
sssS'traceback'
p4294
S'Traceback (most recent call last):\n  File "/home/strzel_a/web2py/gluon/restricted.py", line 181, in restricted\n    exec ccode in environment\n  File "/home/strzel_a/web2py/applications/bench/models/menu.py", line 71, in <module>\n    (OUTJS, OUTCSS) = minify_prod()\n  File "/home/strzel_a/web2py/applications/bench/models/menu.py", line 63, in minify_prod\n    OUTCSS = compress.process_css(css_files, request.folder)\n  File "applications/bench/modules/pack.py", line 72, in process_css\n    out.close()\nNameError: global name \'PATH\' is not defined\n'
p4295
s.