(dp1
S'output'
p2
S''
sS'layer'
p3
S'/home/strzel_a/web2py/applications/bench/models/minification.py'
p4
sS'code'
p5
S'# -*- coding: utf-8 -*-\n\n########################################################################\n#\n# Automatic files minification\n#\n########################################################################\n\n# Clear cache\n# cache.ram.clear()\n\n#@cache(request.env.path_info, time_expire=999999, cache_model=cache.ram)\ndef get_urls():\n    logger.info("+----------- URL update")\n    #\n    # Here we include files that will be included on\n    # views/layouts/layout.html\n    #\n    # By adding them here, each files will be minimized\n    # if the server is set on PRODUCTION environment\n    #\n    js_files = [\n        URL(\'static\', \'js/jquery-1.5.2.js\'),\n        URL(\'static\', \'js/main.js\')\n        ]\n    css_files = [\n        URL(\'static\', \'css/base.css\')\n        ]\n    return js_files, css_files\n\n(js_files, css_files) = get_urls()\n\n#@cache(request.env.path_info, time_expire=999999, cache_model=cache.ram)\ndef minify_prod():\n    #\n    # This function will be called for minimizing CSS and JS\n    # on production environment\n    #\n    logger.info("+----------- File minification")\n    global css_files\n    global js_files\n    compress = local_import(\'pack\', reload=True)\n    compress.process_css(css_files, request.folder, \'min.css\')\n    compress.process_js(js_files, request.folder, \'min.js\')\nprod = True\n#\n#\n#\nif prod==True:\n    minify_prod()\n    css_files = [URL(\'static\', \'min.css\')]\n    js_files = [URL(\'static\', \'min.js\')]\n\n'
p6
sS'snapshot'
p7
(dp8
S'exception'
p9
(dp10
S'__getslice__'
p11
S"<method-wrapper '__getslice__' of exceptions.SyntaxError object>"
p12
sS'text'
p13
S'"        fd1 = open(app_path[:app_path.rfind(\'/\') + t, \'r\')\\n"'
p14
sS'__str__'
p15
S"<method-wrapper '__str__' of exceptions.SyntaxError object>"
p16
sS'__reduce__'
p17
S'<built-in method __reduce__ of exceptions.SyntaxError object>'
p18
sS'__dict__'
p19
S'{}'
p20
sS'__sizeof__'
p21
S'<built-in method __sizeof__ of exceptions.SyntaxError object>'
p22
sS'__init__'
p23
S"<method-wrapper '__init__' of exceptions.SyntaxError object>"
p24
sS'__setattr__'
p25
S"<method-wrapper '__setattr__' of exceptions.SyntaxError object>"
p26
sS'__reduce_ex__'
p27
S'<built-in method __reduce_ex__ of exceptions.SyntaxError object>'
p28
sS'__new__'
p29
S'<built-in method __new__ of type object>'
p30
sS'__format__'
p31
S'<built-in method __format__ of exceptions.SyntaxError object>'
p32
sS'__class__'
p33
S"<type 'exceptions.SyntaxError'>"
p34
sS'filename'
p35
S"'applications/bench/modules/pack.py'"
p36
sS'lineno'
p37
S'53'
p38
sS'msg'
p39
S"'invalid syntax'"
p40
sS'__doc__'
p41
S"'Invalid syntax.'"
p42
sS'__getitem__'
p43
S"<method-wrapper '__getitem__' of exceptions.SyntaxError object>"
p44
sS'__setstate__'
p45
S'<built-in method __setstate__ of exceptions.SyntaxError object>'
p46
sS'__getattribute__'
p47
S"<method-wrapper '__getattribute__' of exceptions.SyntaxError object>"
p48
sS'print_file_and_line'
p49
S'None'
p50
sS'args'
p51
S'(\'invalid syntax\', (\'applications/bench/modules/pack.py\', 53, 58, "        fd1 = open(app_path[:app_path.rfind(\'/\') + t, \'r\')\\n"))'
p52
sS'__subclasshook__'
p53
S'<built-in method __subclasshook__ of type object>'
p54
sS'offset'
p55
S'58'
p56
sS'__unicode__'
p57
S'<built-in method __unicode__ of exceptions.SyntaxError object>'
p58
sS'__delattr__'
p59
S"<method-wrapper '__delattr__' of exceptions.SyntaxError object>"
p60
sS'__repr__'
p61
S"<method-wrapper '__repr__' of exceptions.SyntaxError object>"
p62
sS'__hash__'
p63
S"<method-wrapper '__hash__' of exceptions.SyntaxError object>"
p64
ssS'evalue'
p65
S'invalid syntax (pack.py, line 53)'
p66
sS'request'
p67
ccopy_reg
_reconstructor
p68
(cgluon.html
BEAUTIFY
p69
c__builtin__
object
p70
NtRp71
(dp72
S'attributes'
p73
(dp74
sS'components'
p75
(lp76
g68
(cgluon.html
TABLE
p77
g70
NtRp78
(dp79
g73
(dp80
S'level'
p81
I5
ssS'parent'
p82
Nsg75
(lp83
g68
(cgluon.html
TR
p84
g70
NtRp85
(dp86
g73
(dp87
sg82
g78
sg75
(lp88
g68
(cgluon.html
TD
p89
g70
NtRp90
(dp91
g73
(dp92
S'_style'
p93
S'font-weight:bold;'
p94
ssg82
g85
sg75
(lp95
S'ajax'
p96
asbag68
(g89
g70
NtRp97
(dp98
g73
(dp99
S'_valign'
p100
S'top'
p101
ssg82
g85
sg75
(lp102
S':'
asbag68
(g89
g70
NtRp103
(dp104
g73
(dp105
sg82
g85
sg75
(lp106
g68
(g69
g70
NtRp107
(dp108
g73
(dp109
g81
I5
ssg82
g103
sg75
(lp110
S'False'
p111
asbasbasbag68
(g84
g70
NtRp112
(dp113
g73
(dp114
sg82
g78
sg75
(lp115
g68
(g89
g70
NtRp116
(dp117
g73
(dp118
g93
g94
ssg82
g112
sg75
(lp119
S'application'
p120
asbag68
(g89
g70
NtRp121
(dp122
g73
(dp123
g100
g101
ssg82
g112
sg75
(lp124
S':'
asbag68
(g89
g70
NtRp125
(dp126
g73
(dp127
sg82
g112
sg75
(lp128
g68
(g69
g70
NtRp129
(dp130
g73
(dp131
g81
I5
ssg82
g125
sg75
(lp132
S'bench'
p133
asbasbasbag68
(g84
g70
NtRp134
(dp135
g73
(dp136
sg82
g78
sg75
(lp137
g68
(g89
g70
NtRp138
(dp139
g73
(dp140
g93
g94
ssg82
g134
sg75
(lp141
g51
asbag68
(g89
g70
NtRp142
(dp143
g73
(dp144
g100
g101
ssg82
g134
sg75
(lp145
S':'
asbag68
(g89
g70
NtRp146
(dp147
g73
(dp148
sg82
g134
sg75
(lp149
g68
(g69
g70
NtRp150
(dp151
g73
(dp152
g81
I5
ssg82
g146
sg75
(lp153
g68
(g77
g70
NtRp154
(dp155
g73
(dp156
g81
I4
ssg82
Nsg75
(lp157
sbasbasbasbag68
(g84
g70
NtRp158
(dp159
g73
(dp160
sg82
g78
sg75
(lp161
g68
(g89
g70
NtRp162
(dp163
g73
(dp164
g93
g94
ssg82
g158
sg75
(lp165
S'body'
p166
asbag68
(g89
g70
NtRp167
(dp168
g73
(dp169
g100
g101
ssg82
g158
sg75
(lp170
S':'
asbag68
(g89
g70
NtRp171
(dp172
g73
(dp173
sg82
g158
sg75
(lp174
g68
(g69
g70
NtRp175
(dp176
g73
(dp177
g81
I5
ssg82
g171
sg75
(lp178
S'<cStringIO.StringO object at 0x2a758b8>'
p179
asbasbasbag68
(g84
g70
NtRp180
(dp181
g73
(dp182
sg82
g78
sg75
(lp183
g68
(g89
g70
NtRp184
(dp185
g73
(dp186
g93
g94
ssg82
g180
sg75
(lp187
S'client'
p188
asbag68
(g89
g70
NtRp189
(dp190
g73
(dp191
g100
g101
ssg82
g180
sg75
(lp192
S':'
asbag68
(g89
g70
NtRp193
(dp194
g73
(dp195
sg82
g180
sg75
(lp196
g68
(g69
g70
NtRp197
(dp198
g73
(dp199
g81
I5
ssg82
g193
sg75
(lp200
S'127.0.0.1'
p201
asbasbasbag68
(g84
g70
NtRp202
(dp203
g73
(dp204
sg82
g78
sg75
(lp205
g68
(g89
g70
NtRp206
(dp207
g73
(dp208
g93
g94
ssg82
g202
sg75
(lp209
S'controller'
p210
asbag68
(g89
g70
NtRp211
(dp212
g73
(dp213
g100
g101
ssg82
g202
sg75
(lp214
S':'
asbag68
(g89
g70
NtRp215
(dp216
g73
(dp217
sg82
g202
sg75
(lp218
g68
(g69
g70
NtRp219
(dp220
g73
(dp221
g81
I5
ssg82
g215
sg75
(lp222
S'default'
p223
asbasbasbag68
(g84
g70
NtRp224
(dp225
g73
(dp226
sg82
g78
sg75
(lp227
g68
(g89
g70
NtRp228
(dp229
g73
(dp230
g93
g94
ssg82
g224
sg75
(lp231
S'cookies'
p232
asbag68
(g89
g70
NtRp233
(dp234
g73
(dp235
g100
g101
ssg82
g224
sg75
(lp236
S':'
asbag68
(g89
g70
NtRp237
(dp238
g73
(dp239
sg82
g224
sg75
(lp240
g68
(g69
g70
NtRp241
(dp242
g73
(dp243
g81
I5
ssg82
g237
sg75
(lp244
g68
(g77
g70
NtRp245
(dp246
g73
(dp247
g81
I4
ssg82
Nsg75
(lp248
g68
(g84
g70
NtRp249
(dp250
g73
(dp251
sg82
g245
sg75
(lp252
g68
(g89
g70
NtRp253
(dp254
g73
(dp255
g93
g94
ssg82
g249
sg75
(lp256
S'csrftoken'
p257
asbag68
(g89
g70
NtRp258
(dp259
g73
(dp260
g100
g101
ssg82
g249
sg75
(lp261
S':'
asbag68
(g89
g70
NtRp262
(dp263
g73
(dp264
sg82
g249
sg75
(lp265
g68
(g69
g70
NtRp266
(dp267
g73
(dp268
g81
I4
ssg82
g262
sg75
(lp269
g68
(g77
g70
NtRp270
(dp271
g73
(dp272
g81
I3
ssg82
Nsg75
(lp273
g68
(g84
g70
NtRp274
(dp275
g73
(dp276
sg82
g270
sg75
(lp277
g68
(g89
g70
NtRp278
(dp279
g73
(dp280
g93
g94
ssg82
g274
sg75
(lp281
S'comment'
p282
asbag68
(g89
g70
NtRp283
(dp284
g73
(dp285
g100
g101
ssg82
g274
sg75
(lp286
S':'
asbag68
(g89
g70
NtRp287
(dp288
g73
(dp289
sg82
g274
sg75
(lp290
g68
(g69
g70
NtRp291
(dp292
g73
(dp293
g81
I3
ssg82
g287
sg75
(lp294
S''
asbasbasbag68
(g84
g70
NtRp295
(dp296
g73
(dp297
sg82
g270
sg75
(lp298
g68
(g89
g70
NtRp299
(dp300
g73
(dp301
g93
g94
ssg82
g295
sg75
(lp302
S'domain'
p303
asbag68
(g89
g70
NtRp304
(dp305
g73
(dp306
g100
g101
ssg82
g295
sg75
(lp307
S':'
asbag68
(g89
g70
NtRp308
(dp309
g73
(dp310
sg82
g295
sg75
(lp311
g68
(g69
g70
NtRp312
(dp313
g73
(dp314
g81
I3
ssg82
g308
sg75
(lp315
S''
asbasbasbag68
(g84
g70
NtRp316
(dp317
g73
(dp318
sg82
g270
sg75
(lp319
g68
(g89
g70
NtRp320
(dp321
g73
(dp322
g93
g94
ssg82
g316
sg75
(lp323
S'expires'
p324
asbag68
(g89
g70
NtRp325
(dp326
g73
(dp327
g100
g101
ssg82
g316
sg75
(lp328
S':'
asbag68
(g89
g70
NtRp329
(dp330
g73
(dp331
sg82
g316
sg75
(lp332
g68
(g69
g70
NtRp333
(dp334
g73
(dp335
g81
I3
ssg82
g329
sg75
(lp336
S''
asbasbasbag68
(g84
g70
NtRp337
(dp338
g73
(dp339
sg82
g270
sg75
(lp340
g68
(g89
g70
NtRp341
(dp342
g73
(dp343
g93
g94
ssg82
g337
sg75
(lp344
S'httponly'
p345
asbag68
(g89
g70
NtRp346
(dp347
g73
(dp348
g100
g101
ssg82
g337
sg75
(lp349
S':'
asbag68
(g89
g70
NtRp350
(dp351
g73
(dp352
sg82
g337
sg75
(lp353
g68
(g69
g70
NtRp354
(dp355
g73
(dp356
g81
I3
ssg82
g350
sg75
(lp357
S''
asbasbasbag68
(g84
g70
NtRp358
(dp359
g73
(dp360
sg82
g270
sg75
(lp361
g68
(g89
g70
NtRp362
(dp363
g73
(dp364
g93
g94
ssg82
g358
sg75
(lp365
S'max-age'
p366
asbag68
(g89
g70
NtRp367
(dp368
g73
(dp369
g100
g101
ssg82
g358
sg75
(lp370
S':'
asbag68
(g89
g70
NtRp371
(dp372
g73
(dp373
sg82
g358
sg75
(lp374
g68
(g69
g70
NtRp375
(dp376
g73
(dp377
g81
I3
ssg82
g371
sg75
(lp378
S''
asbasbasbag68
(g84
g70
NtRp379
(dp380
g73
(dp381
sg82
g270
sg75
(lp382
g68
(g89
g70
NtRp383
(dp384
g73
(dp385
g93
g94
ssg82
g379
sg75
(lp386
S'path'
p387
asbag68
(g89
g70
NtRp388
(dp389
g73
(dp390
g100
g101
ssg82
g379
sg75
(lp391
S':'
asbag68
(g89
g70
NtRp392
(dp393
g73
(dp394
sg82
g379
sg75
(lp395
g68
(g69
g70
NtRp396
(dp397
g73
(dp398
g81
I3
ssg82
g392
sg75
(lp399
S''
asbasbasbag68
(g84
g70
NtRp400
(dp401
g73
(dp402
sg82
g270
sg75
(lp403
g68
(g89
g70
NtRp404
(dp405
g73
(dp406
g93
g94
ssg82
g400
sg75
(lp407
S'secure'
p408
asbag68
(g89
g70
NtRp409
(dp410
g73
(dp411
g100
g101
ssg82
g400
sg75
(lp412
S':'
asbag68
(g89
g70
NtRp413
(dp414
g73
(dp415
sg82
g400
sg75
(lp416
g68
(g69
g70
NtRp417
(dp418
g73
(dp419
g81
I3
ssg82
g413
sg75
(lp420
S''
asbasbasbag68
(g84
g70
NtRp421
(dp422
g73
(dp423
sg82
g270
sg75
(lp424
g68
(g89
g70
NtRp425
(dp426
g73
(dp427
g93
g94
ssg82
g421
sg75
(lp428
S'version'
p429
asbag68
(g89
g70
NtRp430
(dp431
g73
(dp432
g100
g101
ssg82
g421
sg75
(lp433
S':'
asbag68
(g89
g70
NtRp434
(dp435
g73
(dp436
sg82
g421
sg75
(lp437
g68
(g69
g70
NtRp438
(dp439
g73
(dp440
g81
I3
ssg82
g434
sg75
(lp441
S''
asbasbasbasbasbasbasbag68
(g84
g70
NtRp442
(dp443
g73
(dp444
sg82
g245
sg75
(lp445
g68
(g89
g70
NtRp446
(dp447
g73
(dp448
g93
g94
ssg82
g442
sg75
(lp449
S'lbk'
p450
asbag68
(g89
g70
NtRp451
(dp452
g73
(dp453
g100
g101
ssg82
g442
sg75
(lp454
S':'
asbag68
(g89
g70
NtRp455
(dp456
g73
(dp457
sg82
g442
sg75
(lp458
g68
(g69
g70
NtRp459
(dp460
g73
(dp461
g81
I4
ssg82
g455
sg75
(lp462
g68
(g77
g70
NtRp463
(dp464
g73
(dp465
g81
I3
ssg82
Nsg75
(lp466
g68
(g84
g70
NtRp467
(dp468
g73
(dp469
sg82
g463
sg75
(lp470
g68
(g89
g70
NtRp471
(dp472
g73
(dp473
g93
g94
ssg82
g467
sg75
(lp474
g282
asbag68
(g89
g70
NtRp475
(dp476
g73
(dp477
g100
g101
ssg82
g467
sg75
(lp478
S':'
asbag68
(g89
g70
NtRp479
(dp480
g73
(dp481
sg82
g467
sg75
(lp482
g68
(g69
g70
NtRp483
(dp484
g73
(dp485
g81
I3
ssg82
g479
sg75
(lp486
S''
asbasbasbag68
(g84
g70
NtRp487
(dp488
g73
(dp489
sg82
g463
sg75
(lp490
g68
(g89
g70
NtRp491
(dp492
g73
(dp493
g93
g94
ssg82
g487
sg75
(lp494
g303
asbag68
(g89
g70
NtRp495
(dp496
g73
(dp497
g100
g101
ssg82
g487
sg75
(lp498
S':'
asbag68
(g89
g70
NtRp499
(dp500
g73
(dp501
sg82
g487
sg75
(lp502
g68
(g69
g70
NtRp503
(dp504
g73
(dp505
g81
I3
ssg82
g499
sg75
(lp506
S''
asbasbasbag68
(g84
g70
NtRp507
(dp508
g73
(dp509
sg82
g463
sg75
(lp510
g68
(g89
g70
NtRp511
(dp512
g73
(dp513
g93
g94
ssg82
g507
sg75
(lp514
g324
asbag68
(g89
g70
NtRp515
(dp516
g73
(dp517
g100
g101
ssg82
g507
sg75
(lp518
S':'
asbag68
(g89
g70
NtRp519
(dp520
g73
(dp521
sg82
g507
sg75
(lp522
g68
(g69
g70
NtRp523
(dp524
g73
(dp525
g81
I3
ssg82
g519
sg75
(lp526
S''
asbasbasbag68
(g84
g70
NtRp527
(dp528
g73
(dp529
sg82
g463
sg75
(lp530
g68
(g89
g70
NtRp531
(dp532
g73
(dp533
g93
g94
ssg82
g527
sg75
(lp534
g345
asbag68
(g89
g70
NtRp535
(dp536
g73
(dp537
g100
g101
ssg82
g527
sg75
(lp538
S':'
asbag68
(g89
g70
NtRp539
(dp540
g73
(dp541
sg82
g527
sg75
(lp542
g68
(g69
g70
NtRp543
(dp544
g73
(dp545
g81
I3
ssg82
g539
sg75
(lp546
S''
asbasbasbag68
(g84
g70
NtRp547
(dp548
g73
(dp549
sg82
g463
sg75
(lp550
g68
(g89
g70
NtRp551
(dp552
g73
(dp553
g93
g94
ssg82
g547
sg75
(lp554
g366
asbag68
(g89
g70
NtRp555
(dp556
g73
(dp557
g100
g101
ssg82
g547
sg75
(lp558
S':'
asbag68
(g89
g70
NtRp559
(dp560
g73
(dp561
sg82
g547
sg75
(lp562
g68
(g69
g70
NtRp563
(dp564
g73
(dp565
g81
I3
ssg82
g559
sg75
(lp566
S''
asbasbasbag68
(g84
g70
NtRp567
(dp568
g73
(dp569
sg82
g463
sg75
(lp570
g68
(g89
g70
NtRp571
(dp572
g73
(dp573
g93
g94
ssg82
g567
sg75
(lp574
g387
asbag68
(g89
g70
NtRp575
(dp576
g73
(dp577
g100
g101
ssg82
g567
sg75
(lp578
S':'
asbag68
(g89
g70
NtRp579
(dp580
g73
(dp581
sg82
g567
sg75
(lp582
g68
(g69
g70
NtRp583
(dp584
g73
(dp585
g81
I3
ssg82
g579
sg75
(lp586
S''
asbasbasbag68
(g84
g70
NtRp587
(dp588
g73
(dp589
sg82
g463
sg75
(lp590
g68
(g89
g70
NtRp591
(dp592
g73
(dp593
g93
g94
ssg82
g587
sg75
(lp594
g408
asbag68
(g89
g70
NtRp595
(dp596
g73
(dp597
g100
g101
ssg82
g587
sg75
(lp598
S':'
asbag68
(g89
g70
NtRp599
(dp600
g73
(dp601
sg82
g587
sg75
(lp602
g68
(g69
g70
NtRp603
(dp604
g73
(dp605
g81
I3
ssg82
g599
sg75
(lp606
S''
asbasbasbag68
(g84
g70
NtRp607
(dp608
g73
(dp609
sg82
g463
sg75
(lp610
g68
(g89
g70
NtRp611
(dp612
g73
(dp613
g93
g94
ssg82
g607
sg75
(lp614
g429
asbag68
(g89
g70
NtRp615
(dp616
g73
(dp617
g100
g101
ssg82
g607
sg75
(lp618
S':'
asbag68
(g89
g70
NtRp619
(dp620
g73
(dp621
sg82
g607
sg75
(lp622
g68
(g69
g70
NtRp623
(dp624
g73
(dp625
g81
I3
ssg82
g619
sg75
(lp626
S''
asbasbasbasbasbasbasbag68
(g84
g70
NtRp627
(dp628
g73
(dp629
sg82
g245
sg75
(lp630
g68
(g89
g70
NtRp631
(dp632
g73
(dp633
g93
g94
ssg82
g627
sg75
(lp634
S'session_id_admin'
p635
asbag68
(g89
g70
NtRp636
(dp637
g73
(dp638
g100
g101
ssg82
g627
sg75
(lp639
S':'
asbag68
(g89
g70
NtRp640
(dp641
g73
(dp642
sg82
g627
sg75
(lp643
g68
(g69
g70
NtRp644
(dp645
g73
(dp646
g81
I4
ssg82
g640
sg75
(lp647
g68
(g77
g70
NtRp648
(dp649
g73
(dp650
g81
I3
ssg82
Nsg75
(lp651
g68
(g84
g70
NtRp652
(dp653
g73
(dp654
sg82
g648
sg75
(lp655
g68
(g89
g70
NtRp656
(dp657
g73
(dp658
g93
g94
ssg82
g652
sg75
(lp659
g282
asbag68
(g89
g70
NtRp660
(dp661
g73
(dp662
g100
g101
ssg82
g652
sg75
(lp663
S':'
asbag68
(g89
g70
NtRp664
(dp665
g73
(dp666
sg82
g652
sg75
(lp667
g68
(g69
g70
NtRp668
(dp669
g73
(dp670
g81
I3
ssg82
g664
sg75
(lp671
S''
asbasbasbag68
(g84
g70
NtRp672
(dp673
g73
(dp674
sg82
g648
sg75
(lp675
g68
(g89
g70
NtRp676
(dp677
g73
(dp678
g93
g94
ssg82
g672
sg75
(lp679
g303
asbag68
(g89
g70
NtRp680
(dp681
g73
(dp682
g100
g101
ssg82
g672
sg75
(lp683
S':'
asbag68
(g89
g70
NtRp684
(dp685
g73
(dp686
sg82
g672
sg75
(lp687
g68
(g69
g70
NtRp688
(dp689
g73
(dp690
g81
I3
ssg82
g684
sg75
(lp691
S''
asbasbasbag68
(g84
g70
NtRp692
(dp693
g73
(dp694
sg82
g648
sg75
(lp695
g68
(g89
g70
NtRp696
(dp697
g73
(dp698
g93
g94
ssg82
g692
sg75
(lp699
g324
asbag68
(g89
g70
NtRp700
(dp701
g73
(dp702
g100
g101
ssg82
g692
sg75
(lp703
S':'
asbag68
(g89
g70
NtRp704
(dp705
g73
(dp706
sg82
g692
sg75
(lp707
g68
(g69
g70
NtRp708
(dp709
g73
(dp710
g81
I3
ssg82
g704
sg75
(lp711
S''
asbasbasbag68
(g84
g70
NtRp712
(dp713
g73
(dp714
sg82
g648
sg75
(lp715
g68
(g89
g70
NtRp716
(dp717
g73
(dp718
g93
g94
ssg82
g712
sg75
(lp719
g345
asbag68
(g89
g70
NtRp720
(dp721
g73
(dp722
g100
g101
ssg82
g712
sg75
(lp723
S':'
asbag68
(g89
g70
NtRp724
(dp725
g73
(dp726
sg82
g712
sg75
(lp727
g68
(g69
g70
NtRp728
(dp729
g73
(dp730
g81
I3
ssg82
g724
sg75
(lp731
S''
asbasbasbag68
(g84
g70
NtRp732
(dp733
g73
(dp734
sg82
g648
sg75
(lp735
g68
(g89
g70
NtRp736
(dp737
g73
(dp738
g93
g94
ssg82
g732
sg75
(lp739
g366
asbag68
(g89
g70
NtRp740
(dp741
g73
(dp742
g100
g101
ssg82
g732
sg75
(lp743
S':'
asbag68
(g89
g70
NtRp744
(dp745
g73
(dp746
sg82
g732
sg75
(lp747
g68
(g69
g70
NtRp748
(dp749
g73
(dp750
g81
I3
ssg82
g744
sg75
(lp751
S''
asbasbasbag68
(g84
g70
NtRp752
(dp753
g73
(dp754
sg82
g648
sg75
(lp755
g68
(g89
g70
NtRp756
(dp757
g73
(dp758
g93
g94
ssg82
g752
sg75
(lp759
g387
asbag68
(g89
g70
NtRp760
(dp761
g73
(dp762
g100
g101
ssg82
g752
sg75
(lp763
S':'
asbag68
(g89
g70
NtRp764
(dp765
g73
(dp766
sg82
g752
sg75
(lp767
g68
(g69
g70
NtRp768
(dp769
g73
(dp770
g81
I3
ssg82
g764
sg75
(lp771
S''
asbasbasbag68
(g84
g70
NtRp772
(dp773
g73
(dp774
sg82
g648
sg75
(lp775
g68
(g89
g70
NtRp776
(dp777
g73
(dp778
g93
g94
ssg82
g772
sg75
(lp779
g408
asbag68
(g89
g70
NtRp780
(dp781
g73
(dp782
g100
g101
ssg82
g772
sg75
(lp783
S':'
asbag68
(g89
g70
NtRp784
(dp785
g73
(dp786
sg82
g772
sg75
(lp787
g68
(g69
g70
NtRp788
(dp789
g73
(dp790
g81
I3
ssg82
g784
sg75
(lp791
S''
asbasbasbag68
(g84
g70
NtRp792
(dp793
g73
(dp794
sg82
g648
sg75
(lp795
g68
(g89
g70
NtRp796
(dp797
g73
(dp798
g93
g94
ssg82
g792
sg75
(lp799
g429
asbag68
(g89
g70
NtRp800
(dp801
g73
(dp802
g100
g101
ssg82
g792
sg75
(lp803
S':'
asbag68
(g89
g70
NtRp804
(dp805
g73
(dp806
sg82
g792
sg75
(lp807
g68
(g69
g70
NtRp808
(dp809
g73
(dp810
g81
I3
ssg82
g804
sg75
(lp811
S''
asbasbasbasbasbasbasbag68
(g84
g70
NtRp812
(dp813
g73
(dp814
sg82
g245
sg75
(lp815
g68
(g89
g70
NtRp816
(dp817
g73
(dp818
g93
g94
ssg82
g812
sg75
(lp819
S'session_id_bench'
p820
asbag68
(g89
g70
NtRp821
(dp822
g73
(dp823
g100
g101
ssg82
g812
sg75
(lp824
S':'
asbag68
(g89
g70
NtRp825
(dp826
g73
(dp827
sg82
g812
sg75
(lp828
g68
(g69
g70
NtRp829
(dp830
g73
(dp831
g81
I4
ssg82
g825
sg75
(lp832
g68
(g77
g70
NtRp833
(dp834
g73
(dp835
g81
I3
ssg82
Nsg75
(lp836
g68
(g84
g70
NtRp837
(dp838
g73
(dp839
sg82
g833
sg75
(lp840
g68
(g89
g70
NtRp841
(dp842
g73
(dp843
g93
g94
ssg82
g837
sg75
(lp844
g282
asbag68
(g89
g70
NtRp845
(dp846
g73
(dp847
g100
g101
ssg82
g837
sg75
(lp848
S':'
asbag68
(g89
g70
NtRp849
(dp850
g73
(dp851
sg82
g837
sg75
(lp852
g68
(g69
g70
NtRp853
(dp854
g73
(dp855
g81
I3
ssg82
g849
sg75
(lp856
S''
asbasbasbag68
(g84
g70
NtRp857
(dp858
g73
(dp859
sg82
g833
sg75
(lp860
g68
(g89
g70
NtRp861
(dp862
g73
(dp863
g93
g94
ssg82
g857
sg75
(lp864
g303
asbag68
(g89
g70
NtRp865
(dp866
g73
(dp867
g100
g101
ssg82
g857
sg75
(lp868
S':'
asbag68
(g89
g70
NtRp869
(dp870
g73
(dp871
sg82
g857
sg75
(lp872
g68
(g69
g70
NtRp873
(dp874
g73
(dp875
g81
I3
ssg82
g869
sg75
(lp876
S''
asbasbasbag68
(g84
g70
NtRp877
(dp878
g73
(dp879
sg82
g833
sg75
(lp880
g68
(g89
g70
NtRp881
(dp882
g73
(dp883
g93
g94
ssg82
g877
sg75
(lp884
g324
asbag68
(g89
g70
NtRp885
(dp886
g73
(dp887
g100
g101
ssg82
g877
sg75
(lp888
S':'
asbag68
(g89
g70
NtRp889
(dp890
g73
(dp891
sg82
g877
sg75
(lp892
g68
(g69
g70
NtRp893
(dp894
g73
(dp895
g81
I3
ssg82
g889
sg75
(lp896
S''
asbasbasbag68
(g84
g70
NtRp897
(dp898
g73
(dp899
sg82
g833
sg75
(lp900
g68
(g89
g70
NtRp901
(dp902
g73
(dp903
g93
g94
ssg82
g897
sg75
(lp904
g345
asbag68
(g89
g70
NtRp905
(dp906
g73
(dp907
g100
g101
ssg82
g897
sg75
(lp908
S':'
asbag68
(g89
g70
NtRp909
(dp910
g73
(dp911
sg82
g897
sg75
(lp912
g68
(g69
g70
NtRp913
(dp914
g73
(dp915
g81
I3
ssg82
g909
sg75
(lp916
S''
asbasbasbag68
(g84
g70
NtRp917
(dp918
g73
(dp919
sg82
g833
sg75
(lp920
g68
(g89
g70
NtRp921
(dp922
g73
(dp923
g93
g94
ssg82
g917
sg75
(lp924
g366
asbag68
(g89
g70
NtRp925
(dp926
g73
(dp927
g100
g101
ssg82
g917
sg75
(lp928
S':'
asbag68
(g89
g70
NtRp929
(dp930
g73
(dp931
sg82
g917
sg75
(lp932
g68
(g69
g70
NtRp933
(dp934
g73
(dp935
g81
I3
ssg82
g929
sg75
(lp936
S''
asbasbasbag68
(g84
g70
NtRp937
(dp938
g73
(dp939
sg82
g833
sg75
(lp940
g68
(g89
g70
NtRp941
(dp942
g73
(dp943
g93
g94
ssg82
g937
sg75
(lp944
g387
asbag68
(g89
g70
NtRp945
(dp946
g73
(dp947
g100
g101
ssg82
g937
sg75
(lp948
S':'
asbag68
(g89
g70
NtRp949
(dp950
g73
(dp951
sg82
g937
sg75
(lp952
g68
(g69
g70
NtRp953
(dp954
g73
(dp955
g81
I3
ssg82
g949
sg75
(lp956
S''
asbasbasbag68
(g84
g70
NtRp957
(dp958
g73
(dp959
sg82
g833
sg75
(lp960
g68
(g89
g70
NtRp961
(dp962
g73
(dp963
g93
g94
ssg82
g957
sg75
(lp964
g408
asbag68
(g89
g70
NtRp965
(dp966
g73
(dp967
g100
g101
ssg82
g957
sg75
(lp968
S':'
asbag68
(g89
g70
NtRp969
(dp970
g73
(dp971
sg82
g957
sg75
(lp972
g68
(g69
g70
NtRp973
(dp974
g73
(dp975
g81
I3
ssg82
g969
sg75
(lp976
S''
asbasbasbag68
(g84
g70
NtRp977
(dp978
g73
(dp979
sg82
g833
sg75
(lp980
g68
(g89
g70
NtRp981
(dp982
g73
(dp983
g93
g94
ssg82
g977
sg75
(lp984
g429
asbag68
(g89
g70
NtRp985
(dp986
g73
(dp987
g100
g101
ssg82
g977
sg75
(lp988
S':'
asbag68
(g89
g70
NtRp989
(dp990
g73
(dp991
sg82
g977
sg75
(lp992
g68
(g69
g70
NtRp993
(dp994
g73
(dp995
g81
I3
ssg82
g989
sg75
(lp996
S''
asbasbasbasbasbasbasbag68
(g84
g70
NtRp997
(dp998
g73
(dp999
sg82
g245
sg75
(lp1000
g68
(g89
g70
NtRp1001
(dp1002
g73
(dp1003
g93
g94
ssg82
g997
sg75
(lp1004
S'session_id_shamebook'
p1005
asbag68
(g89
g70
NtRp1006
(dp1007
g73
(dp1008
g100
g101
ssg82
g997
sg75
(lp1009
S':'
asbag68
(g89
g70
NtRp1010
(dp1011
g73
(dp1012
sg82
g997
sg75
(lp1013
g68
(g69
g70
NtRp1014
(dp1015
g73
(dp1016
g81
I4
ssg82
g1010
sg75
(lp1017
g68
(g77
g70
NtRp1018
(dp1019
g73
(dp1020
g81
I3
ssg82
Nsg75
(lp1021
g68
(g84
g70
NtRp1022
(dp1023
g73
(dp1024
sg82
g1018
sg75
(lp1025
g68
(g89
g70
NtRp1026
(dp1027
g73
(dp1028
g93
g94
ssg82
g1022
sg75
(lp1029
g282
asbag68
(g89
g70
NtRp1030
(dp1031
g73
(dp1032
g100
g101
ssg82
g1022
sg75
(lp1033
S':'
asbag68
(g89
g70
NtRp1034
(dp1035
g73
(dp1036
sg82
g1022
sg75
(lp1037
g68
(g69
g70
NtRp1038
(dp1039
g73
(dp1040
g81
I3
ssg82
g1034
sg75
(lp1041
S''
asbasbasbag68
(g84
g70
NtRp1042
(dp1043
g73
(dp1044
sg82
g1018
sg75
(lp1045
g68
(g89
g70
NtRp1046
(dp1047
g73
(dp1048
g93
g94
ssg82
g1042
sg75
(lp1049
g303
asbag68
(g89
g70
NtRp1050
(dp1051
g73
(dp1052
g100
g101
ssg82
g1042
sg75
(lp1053
S':'
asbag68
(g89
g70
NtRp1054
(dp1055
g73
(dp1056
sg82
g1042
sg75
(lp1057
g68
(g69
g70
NtRp1058
(dp1059
g73
(dp1060
g81
I3
ssg82
g1054
sg75
(lp1061
S''
asbasbasbag68
(g84
g70
NtRp1062
(dp1063
g73
(dp1064
sg82
g1018
sg75
(lp1065
g68
(g89
g70
NtRp1066
(dp1067
g73
(dp1068
g93
g94
ssg82
g1062
sg75
(lp1069
g324
asbag68
(g89
g70
NtRp1070
(dp1071
g73
(dp1072
g100
g101
ssg82
g1062
sg75
(lp1073
S':'
asbag68
(g89
g70
NtRp1074
(dp1075
g73
(dp1076
sg82
g1062
sg75
(lp1077
g68
(g69
g70
NtRp1078
(dp1079
g73
(dp1080
g81
I3
ssg82
g1074
sg75
(lp1081
S''
asbasbasbag68
(g84
g70
NtRp1082
(dp1083
g73
(dp1084
sg82
g1018
sg75
(lp1085
g68
(g89
g70
NtRp1086
(dp1087
g73
(dp1088
g93
g94
ssg82
g1082
sg75
(lp1089
g345
asbag68
(g89
g70
NtRp1090
(dp1091
g73
(dp1092
g100
g101
ssg82
g1082
sg75
(lp1093
S':'
asbag68
(g89
g70
NtRp1094
(dp1095
g73
(dp1096
sg82
g1082
sg75
(lp1097
g68
(g69
g70
NtRp1098
(dp1099
g73
(dp1100
g81
I3
ssg82
g1094
sg75
(lp1101
S''
asbasbasbag68
(g84
g70
NtRp1102
(dp1103
g73
(dp1104
sg82
g1018
sg75
(lp1105
g68
(g89
g70
NtRp1106
(dp1107
g73
(dp1108
g93
g94
ssg82
g1102
sg75
(lp1109
g366
asbag68
(g89
g70
NtRp1110
(dp1111
g73
(dp1112
g100
g101
ssg82
g1102
sg75
(lp1113
S':'
asbag68
(g89
g70
NtRp1114
(dp1115
g73
(dp1116
sg82
g1102
sg75
(lp1117
g68
(g69
g70
NtRp1118
(dp1119
g73
(dp1120
g81
I3
ssg82
g1114
sg75
(lp1121
S''
asbasbasbag68
(g84
g70
NtRp1122
(dp1123
g73
(dp1124
sg82
g1018
sg75
(lp1125
g68
(g89
g70
NtRp1126
(dp1127
g73
(dp1128
g93
g94
ssg82
g1122
sg75
(lp1129
g387
asbag68
(g89
g70
NtRp1130
(dp1131
g73
(dp1132
g100
g101
ssg82
g1122
sg75
(lp1133
S':'
asbag68
(g89
g70
NtRp1134
(dp1135
g73
(dp1136
sg82
g1122
sg75
(lp1137
g68
(g69
g70
NtRp1138
(dp1139
g73
(dp1140
g81
I3
ssg82
g1134
sg75
(lp1141
S''
asbasbasbag68
(g84
g70
NtRp1142
(dp1143
g73
(dp1144
sg82
g1018
sg75
(lp1145
g68
(g89
g70
NtRp1146
(dp1147
g73
(dp1148
g93
g94
ssg82
g1142
sg75
(lp1149
g408
asbag68
(g89
g70
NtRp1150
(dp1151
g73
(dp1152
g100
g101
ssg82
g1142
sg75
(lp1153
S':'
asbag68
(g89
g70
NtRp1154
(dp1155
g73
(dp1156
sg82
g1142
sg75
(lp1157
g68
(g69
g70
NtRp1158
(dp1159
g73
(dp1160
g81
I3
ssg82
g1154
sg75
(lp1161
S''
asbasbasbag68
(g84
g70
NtRp1162
(dp1163
g73
(dp1164
sg82
g1018
sg75
(lp1165
g68
(g89
g70
NtRp1166
(dp1167
g73
(dp1168
g93
g94
ssg82
g1162
sg75
(lp1169
g429
asbag68
(g89
g70
NtRp1170
(dp1171
g73
(dp1172
g100
g101
ssg82
g1162
sg75
(lp1173
S':'
asbag68
(g89
g70
NtRp1174
(dp1175
g73
(dp1176
sg82
g1162
sg75
(lp1177
g68
(g69
g70
NtRp1178
(dp1179
g73
(dp1180
g81
I3
ssg82
g1174
sg75
(lp1181
S''
asbasbasbasbasbasbasbag68
(g84
g70
NtRp1182
(dp1183
g73
(dp1184
sg82
g245
sg75
(lp1185
g68
(g89
g70
NtRp1186
(dp1187
g73
(dp1188
g93
g94
ssg82
g1182
sg75
(lp1189
S'session_id_welcome'
p1190
asbag68
(g89
g70
NtRp1191
(dp1192
g73
(dp1193
g100
g101
ssg82
g1182
sg75
(lp1194
S':'
asbag68
(g89
g70
NtRp1195
(dp1196
g73
(dp1197
sg82
g1182
sg75
(lp1198
g68
(g69
g70
NtRp1199
(dp1200
g73
(dp1201
g81
I4
ssg82
g1195
sg75
(lp1202
g68
(g77
g70
NtRp1203
(dp1204
g73
(dp1205
g81
I3
ssg82
Nsg75
(lp1206
g68
(g84
g70
NtRp1207
(dp1208
g73
(dp1209
sg82
g1203
sg75
(lp1210
g68
(g89
g70
NtRp1211
(dp1212
g73
(dp1213
g93
g94
ssg82
g1207
sg75
(lp1214
g282
asbag68
(g89
g70
NtRp1215
(dp1216
g73
(dp1217
g100
g101
ssg82
g1207
sg75
(lp1218
S':'
asbag68
(g89
g70
NtRp1219
(dp1220
g73
(dp1221
sg82
g1207
sg75
(lp1222
g68
(g69
g70
NtRp1223
(dp1224
g73
(dp1225
g81
I3
ssg82
g1219
sg75
(lp1226
S''
asbasbasbag68
(g84
g70
NtRp1227
(dp1228
g73
(dp1229
sg82
g1203
sg75
(lp1230
g68
(g89
g70
NtRp1231
(dp1232
g73
(dp1233
g93
g94
ssg82
g1227
sg75
(lp1234
g303
asbag68
(g89
g70
NtRp1235
(dp1236
g73
(dp1237
g100
g101
ssg82
g1227
sg75
(lp1238
S':'
asbag68
(g89
g70
NtRp1239
(dp1240
g73
(dp1241
sg82
g1227
sg75
(lp1242
g68
(g69
g70
NtRp1243
(dp1244
g73
(dp1245
g81
I3
ssg82
g1239
sg75
(lp1246
S''
asbasbasbag68
(g84
g70
NtRp1247
(dp1248
g73
(dp1249
sg82
g1203
sg75
(lp1250
g68
(g89
g70
NtRp1251
(dp1252
g73
(dp1253
g93
g94
ssg82
g1247
sg75
(lp1254
g324
asbag68
(g89
g70
NtRp1255
(dp1256
g73
(dp1257
g100
g101
ssg82
g1247
sg75
(lp1258
S':'
asbag68
(g89
g70
NtRp1259
(dp1260
g73
(dp1261
sg82
g1247
sg75
(lp1262
g68
(g69
g70
NtRp1263
(dp1264
g73
(dp1265
g81
I3
ssg82
g1259
sg75
(lp1266
S''
asbasbasbag68
(g84
g70
NtRp1267
(dp1268
g73
(dp1269
sg82
g1203
sg75
(lp1270
g68
(g89
g70
NtRp1271
(dp1272
g73
(dp1273
g93
g94
ssg82
g1267
sg75
(lp1274
g345
asbag68
(g89
g70
NtRp1275
(dp1276
g73
(dp1277
g100
g101
ssg82
g1267
sg75
(lp1278
S':'
asbag68
(g89
g70
NtRp1279
(dp1280
g73
(dp1281
sg82
g1267
sg75
(lp1282
g68
(g69
g70
NtRp1283
(dp1284
g73
(dp1285
g81
I3
ssg82
g1279
sg75
(lp1286
S''
asbasbasbag68
(g84
g70
NtRp1287
(dp1288
g73
(dp1289
sg82
g1203
sg75
(lp1290
g68
(g89
g70
NtRp1291
(dp1292
g73
(dp1293
g93
g94
ssg82
g1287
sg75
(lp1294
g366
asbag68
(g89
g70
NtRp1295
(dp1296
g73
(dp1297
g100
g101
ssg82
g1287
sg75
(lp1298
S':'
asbag68
(g89
g70
NtRp1299
(dp1300
g73
(dp1301
sg82
g1287
sg75
(lp1302
g68
(g69
g70
NtRp1303
(dp1304
g73
(dp1305
g81
I3
ssg82
g1299
sg75
(lp1306
S''
asbasbasbag68
(g84
g70
NtRp1307
(dp1308
g73
(dp1309
sg82
g1203
sg75
(lp1310
g68
(g89
g70
NtRp1311
(dp1312
g73
(dp1313
g93
g94
ssg82
g1307
sg75
(lp1314
g387
asbag68
(g89
g70
NtRp1315
(dp1316
g73
(dp1317
g100
g101
ssg82
g1307
sg75
(lp1318
S':'
asbag68
(g89
g70
NtRp1319
(dp1320
g73
(dp1321
sg82
g1307
sg75
(lp1322
g68
(g69
g70
NtRp1323
(dp1324
g73
(dp1325
g81
I3
ssg82
g1319
sg75
(lp1326
S''
asbasbasbag68
(g84
g70
NtRp1327
(dp1328
g73
(dp1329
sg82
g1203
sg75
(lp1330
g68
(g89
g70
NtRp1331
(dp1332
g73
(dp1333
g93
g94
ssg82
g1327
sg75
(lp1334
g408
asbag68
(g89
g70
NtRp1335
(dp1336
g73
(dp1337
g100
g101
ssg82
g1327
sg75
(lp1338
S':'
asbag68
(g89
g70
NtRp1339
(dp1340
g73
(dp1341
sg82
g1327
sg75
(lp1342
g68
(g69
g70
NtRp1343
(dp1344
g73
(dp1345
g81
I3
ssg82
g1339
sg75
(lp1346
S''
asbasbasbag68
(g84
g70
NtRp1347
(dp1348
g73
(dp1349
sg82
g1203
sg75
(lp1350
g68
(g89
g70
NtRp1351
(dp1352
g73
(dp1353
g93
g94
ssg82
g1347
sg75
(lp1354
g429
asbag68
(g89
g70
NtRp1355
(dp1356
g73
(dp1357
g100
g101
ssg82
g1347
sg75
(lp1358
S':'
asbag68
(g89
g70
NtRp1359
(dp1360
g73
(dp1361
sg82
g1347
sg75
(lp1362
g68
(g69
g70
NtRp1363
(dp1364
g73
(dp1365
g81
I3
ssg82
g1359
sg75
(lp1366
S''
asbasbasbasbasbasbasbag68
(g84
g70
NtRp1367
(dp1368
g73
(dp1369
sg82
g245
sg75
(lp1370
g68
(g89
g70
NtRp1371
(dp1372
g73
(dp1373
g93
g94
ssg82
g1367
sg75
(lp1374
S'sessionid'
p1375
asbag68
(g89
g70
NtRp1376
(dp1377
g73
(dp1378
g100
g101
ssg82
g1367
sg75
(lp1379
S':'
asbag68
(g89
g70
NtRp1380
(dp1381
g73
(dp1382
sg82
g1367
sg75
(lp1383
g68
(g69
g70
NtRp1384
(dp1385
g73
(dp1386
g81
I4
ssg82
g1380
sg75
(lp1387
g68
(g77
g70
NtRp1388
(dp1389
g73
(dp1390
g81
I3
ssg82
Nsg75
(lp1391
g68
(g84
g70
NtRp1392
(dp1393
g73
(dp1394
sg82
g1388
sg75
(lp1395
g68
(g89
g70
NtRp1396
(dp1397
g73
(dp1398
g93
g94
ssg82
g1392
sg75
(lp1399
g282
asbag68
(g89
g70
NtRp1400
(dp1401
g73
(dp1402
g100
g101
ssg82
g1392
sg75
(lp1403
S':'
asbag68
(g89
g70
NtRp1404
(dp1405
g73
(dp1406
sg82
g1392
sg75
(lp1407
g68
(g69
g70
NtRp1408
(dp1409
g73
(dp1410
g81
I3
ssg82
g1404
sg75
(lp1411
S''
asbasbasbag68
(g84
g70
NtRp1412
(dp1413
g73
(dp1414
sg82
g1388
sg75
(lp1415
g68
(g89
g70
NtRp1416
(dp1417
g73
(dp1418
g93
g94
ssg82
g1412
sg75
(lp1419
g303
asbag68
(g89
g70
NtRp1420
(dp1421
g73
(dp1422
g100
g101
ssg82
g1412
sg75
(lp1423
S':'
asbag68
(g89
g70
NtRp1424
(dp1425
g73
(dp1426
sg82
g1412
sg75
(lp1427
g68
(g69
g70
NtRp1428
(dp1429
g73
(dp1430
g81
I3
ssg82
g1424
sg75
(lp1431
S''
asbasbasbag68
(g84
g70
NtRp1432
(dp1433
g73
(dp1434
sg82
g1388
sg75
(lp1435
g68
(g89
g70
NtRp1436
(dp1437
g73
(dp1438
g93
g94
ssg82
g1432
sg75
(lp1439
g324
asbag68
(g89
g70
NtRp1440
(dp1441
g73
(dp1442
g100
g101
ssg82
g1432
sg75
(lp1443
S':'
asbag68
(g89
g70
NtRp1444
(dp1445
g73
(dp1446
sg82
g1432
sg75
(lp1447
g68
(g69
g70
NtRp1448
(dp1449
g73
(dp1450
g81
I3
ssg82
g1444
sg75
(lp1451
S''
asbasbasbag68
(g84
g70
NtRp1452
(dp1453
g73
(dp1454
sg82
g1388
sg75
(lp1455
g68
(g89
g70
NtRp1456
(dp1457
g73
(dp1458
g93
g94
ssg82
g1452
sg75
(lp1459
g345
asbag68
(g89
g70
NtRp1460
(dp1461
g73
(dp1462
g100
g101
ssg82
g1452
sg75
(lp1463
S':'
asbag68
(g89
g70
NtRp1464
(dp1465
g73
(dp1466
sg82
g1452
sg75
(lp1467
g68
(g69
g70
NtRp1468
(dp1469
g73
(dp1470
g81
I3
ssg82
g1464
sg75
(lp1471
S''
asbasbasbag68
(g84
g70
NtRp1472
(dp1473
g73
(dp1474
sg82
g1388
sg75
(lp1475
g68
(g89
g70
NtRp1476
(dp1477
g73
(dp1478
g93
g94
ssg82
g1472
sg75
(lp1479
g366
asbag68
(g89
g70
NtRp1480
(dp1481
g73
(dp1482
g100
g101
ssg82
g1472
sg75
(lp1483
S':'
asbag68
(g89
g70
NtRp1484
(dp1485
g73
(dp1486
sg82
g1472
sg75
(lp1487
g68
(g69
g70
NtRp1488
(dp1489
g73
(dp1490
g81
I3
ssg82
g1484
sg75
(lp1491
S''
asbasbasbag68
(g84
g70
NtRp1492
(dp1493
g73
(dp1494
sg82
g1388
sg75
(lp1495
g68
(g89
g70
NtRp1496
(dp1497
g73
(dp1498
g93
g94
ssg82
g1492
sg75
(lp1499
g387
asbag68
(g89
g70
NtRp1500
(dp1501
g73
(dp1502
g100
g101
ssg82
g1492
sg75
(lp1503
S':'
asbag68
(g89
g70
NtRp1504
(dp1505
g73
(dp1506
sg82
g1492
sg75
(lp1507
g68
(g69
g70
NtRp1508
(dp1509
g73
(dp1510
g81
I3
ssg82
g1504
sg75
(lp1511
S''
asbasbasbag68
(g84
g70
NtRp1512
(dp1513
g73
(dp1514
sg82
g1388
sg75
(lp1515
g68
(g89
g70
NtRp1516
(dp1517
g73
(dp1518
g93
g94
ssg82
g1512
sg75
(lp1519
g408
asbag68
(g89
g70
NtRp1520
(dp1521
g73
(dp1522
g100
g101
ssg82
g1512
sg75
(lp1523
S':'
asbag68
(g89
g70
NtRp1524
(dp1525
g73
(dp1526
sg82
g1512
sg75
(lp1527
g68
(g69
g70
NtRp1528
(dp1529
g73
(dp1530
g81
I3
ssg82
g1524
sg75
(lp1531
S''
asbasbasbag68
(g84
g70
NtRp1532
(dp1533
g73
(dp1534
sg82
g1388
sg75
(lp1535
g68
(g89
g70
NtRp1536
(dp1537
g73
(dp1538
g93
g94
ssg82
g1532
sg75
(lp1539
g429
asbag68
(g89
g70
NtRp1540
(dp1541
g73
(dp1542
g100
g101
ssg82
g1532
sg75
(lp1543
S':'
asbag68
(g89
g70
NtRp1544
(dp1545
g73
(dp1546
sg82
g1532
sg75
(lp1547
g68
(g69
g70
NtRp1548
(dp1549
g73
(dp1550
g81
I3
ssg82
g1544
sg75
(lp1551
S''
asbasbasbasbasbasbasbasbasbasbasbag68
(g84
g70
NtRp1552
(dp1553
g73
(dp1554
sg82
g78
sg75
(lp1555
g68
(g89
g70
NtRp1556
(dp1557
g73
(dp1558
g93
g94
ssg82
g1552
sg75
(lp1559
S'env'
p1560
asbag68
(g89
g70
NtRp1561
(dp1562
g73
(dp1563
g100
g101
ssg82
g1552
sg75
(lp1564
S':'
asbag68
(g89
g70
NtRp1565
(dp1566
g73
(dp1567
sg82
g1552
sg75
(lp1568
g68
(g69
g70
NtRp1569
(dp1570
g73
(dp1571
g81
I5
ssg82
g1565
sg75
(lp1572
g68
(g77
g70
NtRp1573
(dp1574
g73
(dp1575
g81
I4
ssg82
Nsg75
(lp1576
g68
(g84
g70
NtRp1577
(dp1578
g73
(dp1579
sg82
g1573
sg75
(lp1580
g68
(g89
g70
NtRp1581
(dp1582
g73
(dp1583
g93
g94
ssg82
g1577
sg75
(lp1584
S'app_folders'
p1585
asbag68
(g89
g70
NtRp1586
(dp1587
g73
(dp1588
g100
g101
ssg82
g1577
sg75
(lp1589
S':'
asbag68
(g89
g70
NtRp1590
(dp1591
g73
(dp1592
sg82
g1577
sg75
(lp1593
g68
(g69
g70
NtRp1594
(dp1595
g73
(dp1596
g81
I4
ssg82
g1590
sg75
(lp1597
S"set(['/home/strzel_a/web2py/applications/bench/', '/home/strzel_a/web2py/applications/admin/', '/home/strzel_a/web2py/applications/shamebook/'])"
p1598
asbasbasbag68
(g84
g70
NtRp1599
(dp1600
g73
(dp1601
sg82
g1573
sg75
(lp1602
g68
(g89
g70
NtRp1603
(dp1604
g73
(dp1605
g93
g94
ssg82
g1599
sg75
(lp1606
S'applications_parent'
p1607
asbag68
(g89
g70
NtRp1608
(dp1609
g73
(dp1610
g100
g101
ssg82
g1599
sg75
(lp1611
S':'
asbag68
(g89
g70
NtRp1612
(dp1613
g73
(dp1614
sg82
g1599
sg75
(lp1615
g68
(g69
g70
NtRp1616
(dp1617
g73
(dp1618
g81
I4
ssg82
g1612
sg75
(lp1619
S'/home/strzel_a/web2py'
p1620
asbasbasbag68
(g84
g70
NtRp1621
(dp1622
g73
(dp1623
sg82
g1573
sg75
(lp1624
g68
(g89
g70
NtRp1625
(dp1626
g73
(dp1627
g93
g94
ssg82
g1621
sg75
(lp1628
S'cmd_args'
p1629
asbag68
(g89
g70
NtRp1630
(dp1631
g73
(dp1632
g100
g101
ssg82
g1621
sg75
(lp1633
S':'
asbag68
(g89
g70
NtRp1634
(dp1635
g73
(dp1636
sg82
g1621
sg75
(lp1637
g68
(g69
g70
NtRp1638
(dp1639
g73
(dp1640
g81
I4
ssg82
g1634
sg75
(lp1641
g68
(g77
g70
NtRp1642
(dp1643
g73
(dp1644
g81
I3
ssg82
Nsg75
(lp1645
sbasbasbasbag68
(g84
g70
NtRp1646
(dp1647
g73
(dp1648
sg82
g1573
sg75
(lp1649
g68
(g89
g70
NtRp1650
(dp1651
g73
(dp1652
g93
g94
ssg82
g1646
sg75
(lp1653
S'cmd_options'
p1654
asbag68
(g89
g70
NtRp1655
(dp1656
g73
(dp1657
g100
g101
ssg82
g1646
sg75
(lp1658
S':'
asbag68
(g89
g70
NtRp1659
(dp1660
g73
(dp1661
sg82
g1646
sg75
(lp1662
g68
(g69
g70
NtRp1663
(dp1664
g73
(dp1665
g81
I4
ssg82
g1659
sg75
(lp1666
S"<Values at 0x199d320: {'verbose': False, 'ip': '127.0.0.1', 'shutdown_timeout': 5, 'taskbar': False, 'port': 9001, 'maxthreads': None, 'softcron': False, 'server_name': 'hemca-machine', 'bpython': False, 'nogui': False, 'nocron': False, 'extcron': False, 'debuglevel': 30, 'test': None, 'folder': '/home/strzel_a/web2py', 'config': '', 'import_models': False, 'winservice': '', 'shell': None, 'run': '', 'log_filename': 'httpserver.log', 'args': [''], 'profiler_filename': None, 'ssl_private_key': '', 'password': '123456', 'request_queue_size': 5, 'ssl_certificate': '', 'cronjob': False, 'plain': False, 'quiet': False, 'interfaces': None, 'minthreads': None, 'timeout': 10, 'numthreads': None, 'pid_filename': 'httpserver.pid'}>"
p1667
asbasbasbag68
(g84
g70
NtRp1668
(dp1669
g73
(dp1670
sg82
g1573
sg75
(lp1671
g68
(g89
g70
NtRp1672
(dp1673
g73
(dp1674
g93
g94
ssg82
g1668
sg75
(lp1675
S'db_sessions'
p1676
asbag68
(g89
g70
NtRp1677
(dp1678
g73
(dp1679
g100
g101
ssg82
g1668
sg75
(lp1680
S':'
asbag68
(g89
g70
NtRp1681
(dp1682
g73
(dp1683
sg82
g1668
sg75
(lp1684
g68
(g69
g70
NtRp1685
(dp1686
g73
(dp1687
g81
I4
ssg82
g1681
sg75
(lp1688
S'set([])'
p1689
asbasbasbag68
(g84
g70
NtRp1690
(dp1691
g73
(dp1692
sg82
g1573
sg75
(lp1693
g68
(g89
g70
NtRp1694
(dp1695
g73
(dp1696
g93
g94
ssg82
g1690
sg75
(lp1697
S'debugging'
p1698
asbag68
(g89
g70
NtRp1699
(dp1700
g73
(dp1701
g100
g101
ssg82
g1690
sg75
(lp1702
S':'
asbag68
(g89
g70
NtRp1703
(dp1704
g73
(dp1705
sg82
g1690
sg75
(lp1706
g68
(g69
g70
NtRp1707
(dp1708
g73
(dp1709
g81
I4
ssg82
g1703
sg75
(lp1710
g111
asbasbasbag68
(g84
g70
NtRp1711
(dp1712
g73
(dp1713
sg82
g1573
sg75
(lp1714
g68
(g89
g70
NtRp1715
(dp1716
g73
(dp1717
g93
g94
ssg82
g1711
sg75
(lp1718
S'gluon_parent'
p1719
asbag68
(g89
g70
NtRp1720
(dp1721
g73
(dp1722
g100
g101
ssg82
g1711
sg75
(lp1723
S':'
asbag68
(g89
g70
NtRp1724
(dp1725
g73
(dp1726
sg82
g1711
sg75
(lp1727
g68
(g69
g70
NtRp1728
(dp1729
g73
(dp1730
g81
I4
ssg82
g1724
sg75
(lp1731
S'/home/strzel_a/web2py'
p1732
asbasbasbag68
(g84
g70
NtRp1733
(dp1734
g73
(dp1735
sg82
g1573
sg75
(lp1736
g68
(g89
g70
NtRp1737
(dp1738
g73
(dp1739
g93
g94
ssg82
g1733
sg75
(lp1740
S'http_accept'
p1741
asbag68
(g89
g70
NtRp1742
(dp1743
g73
(dp1744
g100
g101
ssg82
g1733
sg75
(lp1745
S':'
asbag68
(g89
g70
NtRp1746
(dp1747
g73
(dp1748
sg82
g1733
sg75
(lp1749
g68
(g69
g70
NtRp1750
(dp1751
g73
(dp1752
g81
I4
ssg82
g1746
sg75
(lp1753
S'application/xml,application/xhtml+xml,text/html;q=0.9,text/plain;q=0.8,image/png,*/*;q=0.5'
p1754
asbasbasbag68
(g84
g70
NtRp1755
(dp1756
g73
(dp1757
sg82
g1573
sg75
(lp1758
g68
(g89
g70
NtRp1759
(dp1760
g73
(dp1761
g93
g94
ssg82
g1755
sg75
(lp1762
S'http_accept_charset'
p1763
asbag68
(g89
g70
NtRp1764
(dp1765
g73
(dp1766
g100
g101
ssg82
g1755
sg75
(lp1767
S':'
asbag68
(g89
g70
NtRp1768
(dp1769
g73
(dp1770
sg82
g1755
sg75
(lp1771
g68
(g69
g70
NtRp1772
(dp1773
g73
(dp1774
g81
I4
ssg82
g1768
sg75
(lp1775
S'ISO-8859-1,utf-8;q=0.7,*;q=0.3'
p1776
asbasbasbag68
(g84
g70
NtRp1777
(dp1778
g73
(dp1779
sg82
g1573
sg75
(lp1780
g68
(g89
g70
NtRp1781
(dp1782
g73
(dp1783
g93
g94
ssg82
g1777
sg75
(lp1784
S'http_accept_encoding'
p1785
asbag68
(g89
g70
NtRp1786
(dp1787
g73
(dp1788
g100
g101
ssg82
g1777
sg75
(lp1789
S':'
asbag68
(g89
g70
NtRp1790
(dp1791
g73
(dp1792
sg82
g1777
sg75
(lp1793
g68
(g69
g70
NtRp1794
(dp1795
g73
(dp1796
g81
I4
ssg82
g1790
sg75
(lp1797
S'gzip,deflate,sdch'
p1798
asbasbasbag68
(g84
g70
NtRp1799
(dp1800
g73
(dp1801
sg82
g1573
sg75
(lp1802
g68
(g89
g70
NtRp1803
(dp1804
g73
(dp1805
g93
g94
ssg82
g1799
sg75
(lp1806
S'http_accept_language'
p1807
asbag68
(g89
g70
NtRp1808
(dp1809
g73
(dp1810
g100
g101
ssg82
g1799
sg75
(lp1811
S':'
asbag68
(g89
g70
NtRp1812
(dp1813
g73
(dp1814
sg82
g1799
sg75
(lp1815
g68
(g69
g70
NtRp1816
(dp1817
g73
(dp1818
g81
I4
ssg82
g1812
sg75
(lp1819
S'en-US,en;q=0.8,fr;q=0.6'
p1820
asbasbasbag68
(g84
g70
NtRp1821
(dp1822
g73
(dp1823
sg82
g1573
sg75
(lp1824
g68
(g89
g70
NtRp1825
(dp1826
g73
(dp1827
g93
g94
ssg82
g1821
sg75
(lp1828
S'http_cache_control'
p1829
asbag68
(g89
g70
NtRp1830
(dp1831
g73
(dp1832
g100
g101
ssg82
g1821
sg75
(lp1833
S':'
asbag68
(g89
g70
NtRp1834
(dp1835
g73
(dp1836
sg82
g1821
sg75
(lp1837
g68
(g69
g70
NtRp1838
(dp1839
g73
(dp1840
g81
I4
ssg82
g1834
sg75
(lp1841
S'max-age=0'
p1842
asbasbasbag68
(g84
g70
NtRp1843
(dp1844
g73
(dp1845
sg82
g1573
sg75
(lp1846
g68
(g89
g70
NtRp1847
(dp1848
g73
(dp1849
g93
g94
ssg82
g1843
sg75
(lp1850
S'http_connection'
p1851
asbag68
(g89
g70
NtRp1852
(dp1853
g73
(dp1854
g100
g101
ssg82
g1843
sg75
(lp1855
S':'
asbag68
(g89
g70
NtRp1856
(dp1857
g73
(dp1858
sg82
g1843
sg75
(lp1859
g68
(g69
g70
NtRp1860
(dp1861
g73
(dp1862
g81
I4
ssg82
g1856
sg75
(lp1863
S'keep-alive'
p1864
asbasbasbag68
(g84
g70
NtRp1865
(dp1866
g73
(dp1867
sg82
g1573
sg75
(lp1868
g68
(g89
g70
NtRp1869
(dp1870
g73
(dp1871
g93
g94
ssg82
g1865
sg75
(lp1872
S'http_cookie'
p1873
asbag68
(g89
g70
NtRp1874
(dp1875
g73
(dp1876
g100
g101
ssg82
g1865
sg75
(lp1877
S':'
asbag68
(g89
g70
NtRp1878
(dp1879
g73
(dp1880
sg82
g1865
sg75
(lp1881
g68
(g69
g70
NtRp1882
(dp1883
g73
(dp1884
g81
I4
ssg82
g1878
sg75
(lp1885
S'__utma_a2a=1892924862.1332329569.1300772643.1300772643.1300772643.2; lbk=108,109,188,189,189,189,189,188,187,186,115,116,118,118,119,119,117,117,127,114,114,113,113,152,152,152,152,152,152,122,120,120,120,120,120,120,123,125,121,183,154,185,155,156,157,175,176,111,2,3,4,5,9,15,6,86,85,84,197,192,196,195,194,198,200,7,73,71,72; sessionid=e1561d45cf8b97b67a7fe429c35b97c4; csrftoken=5f33e658da1baec203558d64b58e4cdc; session_id_welcome=127.0.0.1-76172e5e-b2b1-4e42-afeb-6514e75083c6; session_id_shamebook=127.0.0.1-d070db0e-2530-4753-b4ec-e07951463d05; session_id_admin=127.0.0.1-8ea6b216-d86f-4f76-b253-6d25a76fbfe5; session_id_bench=127.0.0.1-bd75bc63-5cd9-4975-a78e-056513a6b389'
p1886
asbasbasbag68
(g84
g70
NtRp1887
(dp1888
g73
(dp1889
sg82
g1573
sg75
(lp1890
g68
(g89
g70
NtRp1891
(dp1892
g73
(dp1893
g93
g94
ssg82
g1887
sg75
(lp1894
S'http_host'
p1895
asbag68
(g89
g70
NtRp1896
(dp1897
g73
(dp1898
g100
g101
ssg82
g1887
sg75
(lp1899
S':'
asbag68
(g89
g70
NtRp1900
(dp1901
g73
(dp1902
sg82
g1887
sg75
(lp1903
g68
(g69
g70
NtRp1904
(dp1905
g73
(dp1906
g81
I4
ssg82
g1900
sg75
(lp1907
S'localhost:9001'
p1908
asbasbasbag68
(g84
g70
NtRp1909
(dp1910
g73
(dp1911
sg82
g1573
sg75
(lp1912
g68
(g89
g70
NtRp1913
(dp1914
g73
(dp1915
g93
g94
ssg82
g1909
sg75
(lp1916
S'http_user_agent'
p1917
asbag68
(g89
g70
NtRp1918
(dp1919
g73
(dp1920
g100
g101
ssg82
g1909
sg75
(lp1921
S':'
asbag68
(g89
g70
NtRp1922
(dp1923
g73
(dp1924
sg82
g1909
sg75
(lp1925
g68
(g69
g70
NtRp1926
(dp1927
g73
(dp1928
g81
I4
ssg82
g1922
sg75
(lp1929
S'Mozilla/5.0 (X11; U; Linux x86_64; en-US) AppleWebKit/534.16 (KHTML, like Gecko) Ubuntu/10.10 Chromium/10.0.648.133 Chrome/10.0.648.133 Safari/534.16'
p1930
asbasbasbag68
(g84
g70
NtRp1931
(dp1932
g73
(dp1933
sg82
g1573
sg75
(lp1934
g68
(g89
g70
NtRp1935
(dp1936
g73
(dp1937
g93
g94
ssg82
g1931
sg75
(lp1938
S'path_info'
p1939
asbag68
(g89
g70
NtRp1940
(dp1941
g73
(dp1942
g100
g101
ssg82
g1931
sg75
(lp1943
S':'
asbag68
(g89
g70
NtRp1944
(dp1945
g73
(dp1946
sg82
g1931
sg75
(lp1947
g68
(g69
g70
NtRp1948
(dp1949
g73
(dp1950
g81
I4
ssg82
g1944
sg75
(lp1951
S'/bench'
p1952
asbasbasbag68
(g84
g70
NtRp1953
(dp1954
g73
(dp1955
sg82
g1573
sg75
(lp1956
g68
(g89
g70
NtRp1957
(dp1958
g73
(dp1959
g93
g94
ssg82
g1953
sg75
(lp1960
S'query_string'
p1961
asbag68
(g89
g70
NtRp1962
(dp1963
g73
(dp1964
g100
g101
ssg82
g1953
sg75
(lp1965
S':'
asbag68
(g89
g70
NtRp1966
(dp1967
g73
(dp1968
sg82
g1953
sg75
(lp1969
g68
(g69
g70
NtRp1970
(dp1971
g73
(dp1972
g81
I4
ssg82
g1966
sg75
(lp1973
S''
asbasbasbag68
(g84
g70
NtRp1974
(dp1975
g73
(dp1976
sg82
g1573
sg75
(lp1977
g68
(g89
g70
NtRp1978
(dp1979
g73
(dp1980
g93
g94
ssg82
g1974
sg75
(lp1981
S'remote_addr'
p1982
asbag68
(g89
g70
NtRp1983
(dp1984
g73
(dp1985
g100
g101
ssg82
g1974
sg75
(lp1986
S':'
asbag68
(g89
g70
NtRp1987
(dp1988
g73
(dp1989
sg82
g1974
sg75
(lp1990
g68
(g69
g70
NtRp1991
(dp1992
g73
(dp1993
g81
I4
ssg82
g1987
sg75
(lp1994
g201
asbasbasbag68
(g84
g70
NtRp1995
(dp1996
g73
(dp1997
sg82
g1573
sg75
(lp1998
g68
(g89
g70
NtRp1999
(dp2000
g73
(dp2001
g93
g94
ssg82
g1995
sg75
(lp2002
S'remote_port'
p2003
asbag68
(g89
g70
NtRp2004
(dp2005
g73
(dp2006
g100
g101
ssg82
g1995
sg75
(lp2007
S':'
asbag68
(g89
g70
NtRp2008
(dp2009
g73
(dp2010
sg82
g1995
sg75
(lp2011
g68
(g69
g70
NtRp2012
(dp2013
g73
(dp2014
g81
I4
ssg82
g2008
sg75
(lp2015
S'36189'
p2016
asbasbasbag68
(g84
g70
NtRp2017
(dp2018
g73
(dp2019
sg82
g1573
sg75
(lp2020
g68
(g89
g70
NtRp2021
(dp2022
g73
(dp2023
g93
g94
ssg82
g2017
sg75
(lp2024
S'request_method'
p2025
asbag68
(g89
g70
NtRp2026
(dp2027
g73
(dp2028
g100
g101
ssg82
g2017
sg75
(lp2029
S':'
asbag68
(g89
g70
NtRp2030
(dp2031
g73
(dp2032
sg82
g2017
sg75
(lp2033
g68
(g69
g70
NtRp2034
(dp2035
g73
(dp2036
g81
I4
ssg82
g2030
sg75
(lp2037
S'GET'
p2038
asbasbasbag68
(g84
g70
NtRp2039
(dp2040
g73
(dp2041
sg82
g1573
sg75
(lp2042
g68
(g89
g70
NtRp2043
(dp2044
g73
(dp2045
g93
g94
ssg82
g2039
sg75
(lp2046
S'request_uri'
p2047
asbag68
(g89
g70
NtRp2048
(dp2049
g73
(dp2050
g100
g101
ssg82
g2039
sg75
(lp2051
S':'
asbag68
(g89
g70
NtRp2052
(dp2053
g73
(dp2054
sg82
g2039
sg75
(lp2055
g68
(g69
g70
NtRp2056
(dp2057
g73
(dp2058
g81
I4
ssg82
g2052
sg75
(lp2059
g1952
asbasbasbag68
(g84
g70
NtRp2060
(dp2061
g73
(dp2062
sg82
g1573
sg75
(lp2063
g68
(g89
g70
NtRp2064
(dp2065
g73
(dp2066
g93
g94
ssg82
g2060
sg75
(lp2067
S'script_name'
p2068
asbag68
(g89
g70
NtRp2069
(dp2070
g73
(dp2071
g100
g101
ssg82
g2060
sg75
(lp2072
S':'
asbag68
(g89
g70
NtRp2073
(dp2074
g73
(dp2075
sg82
g2060
sg75
(lp2076
g68
(g69
g70
NtRp2077
(dp2078
g73
(dp2079
g81
I4
ssg82
g2073
sg75
(lp2080
S''
asbasbasbag68
(g84
g70
NtRp2081
(dp2082
g73
(dp2083
sg82
g1573
sg75
(lp2084
g68
(g89
g70
NtRp2085
(dp2086
g73
(dp2087
g93
g94
ssg82
g2081
sg75
(lp2088
S'server_name'
p2089
asbag68
(g89
g70
NtRp2090
(dp2091
g73
(dp2092
g100
g101
ssg82
g2081
sg75
(lp2093
S':'
asbag68
(g89
g70
NtRp2094
(dp2095
g73
(dp2096
sg82
g2081
sg75
(lp2097
g68
(g69
g70
NtRp2098
(dp2099
g73
(dp2100
g81
I4
ssg82
g2094
sg75
(lp2101
S'hemca-machine'
p2102
asbasbasbag68
(g84
g70
NtRp2103
(dp2104
g73
(dp2105
sg82
g1573
sg75
(lp2106
g68
(g89
g70
NtRp2107
(dp2108
g73
(dp2109
g93
g94
ssg82
g2103
sg75
(lp2110
S'server_port'
p2111
asbag68
(g89
g70
NtRp2112
(dp2113
g73
(dp2114
g100
g101
ssg82
g2103
sg75
(lp2115
S':'
asbag68
(g89
g70
NtRp2116
(dp2117
g73
(dp2118
sg82
g2103
sg75
(lp2119
g68
(g69
g70
NtRp2120
(dp2121
g73
(dp2122
g81
I4
ssg82
g2116
sg75
(lp2123
S'9001'
p2124
asbasbasbag68
(g84
g70
NtRp2125
(dp2126
g73
(dp2127
sg82
g1573
sg75
(lp2128
g68
(g89
g70
NtRp2129
(dp2130
g73
(dp2131
g93
g94
ssg82
g2125
sg75
(lp2132
S'server_protocol'
p2133
asbag68
(g89
g70
NtRp2134
(dp2135
g73
(dp2136
g100
g101
ssg82
g2125
sg75
(lp2137
S':'
asbag68
(g89
g70
NtRp2138
(dp2139
g73
(dp2140
sg82
g2125
sg75
(lp2141
g68
(g69
g70
NtRp2142
(dp2143
g73
(dp2144
g81
I4
ssg82
g2138
sg75
(lp2145
S'HTTP/1.1'
p2146
asbasbasbag68
(g84
g70
NtRp2147
(dp2148
g73
(dp2149
sg82
g1573
sg75
(lp2150
g68
(g89
g70
NtRp2151
(dp2152
g73
(dp2153
g93
g94
ssg82
g2147
sg75
(lp2154
S'server_software'
p2155
asbag68
(g89
g70
NtRp2156
(dp2157
g73
(dp2158
g100
g101
ssg82
g2147
sg75
(lp2159
S':'
asbag68
(g89
g70
NtRp2160
(dp2161
g73
(dp2162
sg82
g2147
sg75
(lp2163
g68
(g69
g70
NtRp2164
(dp2165
g73
(dp2166
g81
I4
ssg82
g2160
sg75
(lp2167
S'Rocket 1.2.2'
p2168
asbasbasbag68
(g84
g70
NtRp2169
(dp2170
g73
(dp2171
sg82
g1573
sg75
(lp2172
g68
(g89
g70
NtRp2173
(dp2174
g73
(dp2175
g93
g94
ssg82
g2169
sg75
(lp2176
S'web2py_crontype'
p2177
asbag68
(g89
g70
NtRp2178
(dp2179
g73
(dp2180
g100
g101
ssg82
g2169
sg75
(lp2181
S':'
asbag68
(g89
g70
NtRp2182
(dp2183
g73
(dp2184
sg82
g2169
sg75
(lp2185
g68
(g69
g70
NtRp2186
(dp2187
g73
(dp2188
g81
I4
ssg82
g2182
sg75
(lp2189
S'hard'
p2190
asbasbasbag68
(g84
g70
NtRp2191
(dp2192
g73
(dp2193
sg82
g1573
sg75
(lp2194
g68
(g89
g70
NtRp2195
(dp2196
g73
(dp2197
g93
g94
ssg82
g2191
sg75
(lp2198
S'web2py_original_uri'
p2199
asbag68
(g89
g70
NtRp2200
(dp2201
g73
(dp2202
g100
g101
ssg82
g2191
sg75
(lp2203
S':'
asbag68
(g89
g70
NtRp2204
(dp2205
g73
(dp2206
sg82
g2191
sg75
(lp2207
g68
(g69
g70
NtRp2208
(dp2209
g73
(dp2210
g81
I4
ssg82
g2204
sg75
(lp2211
g1952
asbasbasbag68
(g84
g70
NtRp2212
(dp2213
g73
(dp2214
sg82
g1573
sg75
(lp2215
g68
(g89
g70
NtRp2216
(dp2217
g73
(dp2218
g93
g94
ssg82
g2212
sg75
(lp2219
S'web2py_path'
p2220
asbag68
(g89
g70
NtRp2221
(dp2222
g73
(dp2223
g100
g101
ssg82
g2212
sg75
(lp2224
S':'
asbag68
(g89
g70
NtRp2225
(dp2226
g73
(dp2227
sg82
g2212
sg75
(lp2228
g68
(g69
g70
NtRp2229
(dp2230
g73
(dp2231
g81
I4
ssg82
g2225
sg75
(lp2232
g1620
asbasbasbag68
(g84
g70
NtRp2233
(dp2234
g73
(dp2235
sg82
g1573
sg75
(lp2236
g68
(g89
g70
NtRp2237
(dp2238
g73
(dp2239
g93
g94
ssg82
g2233
sg75
(lp2240
S'web2py_version'
p2241
asbag68
(g89
g70
NtRp2242
(dp2243
g73
(dp2244
g100
g101
ssg82
g2233
sg75
(lp2245
S':'
asbag68
(g89
g70
NtRp2246
(dp2247
g73
(dp2248
sg82
g2233
sg75
(lp2249
g68
(g69
g70
NtRp2250
(dp2251
g73
(dp2252
g81
I4
ssg82
g2246
sg75
(lp2253
S'Version 1.95.1 (2011-04-25 15:04:14)\n'
p2254
asbasbasbag68
(g84
g70
NtRp2255
(dp2256
g73
(dp2257
sg82
g1573
sg75
(lp2258
g68
(g89
g70
NtRp2259
(dp2260
g73
(dp2261
g93
g94
ssg82
g2255
sg75
(lp2262
S'wsgi_errors'
p2263
asbag68
(g89
g70
NtRp2264
(dp2265
g73
(dp2266
g100
g101
ssg82
g2255
sg75
(lp2267
S':'
asbag68
(g89
g70
NtRp2268
(dp2269
g73
(dp2270
sg82
g2255
sg75
(lp2271
g68
(g69
g70
NtRp2272
(dp2273
g73
(dp2274
g81
I4
ssg82
g2268
sg75
(lp2275
S"<open file '<stderr>', mode 'w' at 0x7fd0cdd5d1e0>"
p2276
asbasbasbag68
(g84
g70
NtRp2277
(dp2278
g73
(dp2279
sg82
g1573
sg75
(lp2280
g68
(g89
g70
NtRp2281
(dp2282
g73
(dp2283
g93
g94
ssg82
g2277
sg75
(lp2284
S'wsgi_file_wrapper'
p2285
asbag68
(g89
g70
NtRp2286
(dp2287
g73
(dp2288
g100
g101
ssg82
g2277
sg75
(lp2289
S':'
asbag68
(g89
g70
NtRp2290
(dp2291
g73
(dp2292
sg82
g2277
sg75
(lp2293
g68
(g69
g70
NtRp2294
(dp2295
g73
(dp2296
g81
I4
ssg82
g2290
sg75
(lp2297
S'<class gluon.rocket.FileWrapper at 0x187cad0>'
p2298
asbasbasbag68
(g84
g70
NtRp2299
(dp2300
g73
(dp2301
sg82
g1573
sg75
(lp2302
g68
(g89
g70
NtRp2303
(dp2304
g73
(dp2305
g93
g94
ssg82
g2299
sg75
(lp2306
S'wsgi_input'
p2307
asbag68
(g89
g70
NtRp2308
(dp2309
g73
(dp2310
g100
g101
ssg82
g2299
sg75
(lp2311
S':'
asbag68
(g89
g70
NtRp2312
(dp2313
g73
(dp2314
sg82
g2299
sg75
(lp2315
g68
(g69
g70
NtRp2316
(dp2317
g73
(dp2318
g81
I4
ssg82
g2312
sg75
(lp2319
S'<socket._fileobject object at 0x27d7650>'
p2320
asbasbasbag68
(g84
g70
NtRp2321
(dp2322
g73
(dp2323
sg82
g1573
sg75
(lp2324
g68
(g89
g70
NtRp2325
(dp2326
g73
(dp2327
g93
g94
ssg82
g2321
sg75
(lp2328
S'wsgi_multiprocess'
p2329
asbag68
(g89
g70
NtRp2330
(dp2331
g73
(dp2332
g100
g101
ssg82
g2321
sg75
(lp2333
S':'
asbag68
(g89
g70
NtRp2334
(dp2335
g73
(dp2336
sg82
g2321
sg75
(lp2337
g68
(g69
g70
NtRp2338
(dp2339
g73
(dp2340
g81
I4
ssg82
g2334
sg75
(lp2341
g111
asbasbasbag68
(g84
g70
NtRp2342
(dp2343
g73
(dp2344
sg82
g1573
sg75
(lp2345
g68
(g89
g70
NtRp2346
(dp2347
g73
(dp2348
g93
g94
ssg82
g2342
sg75
(lp2349
S'wsgi_multithread'
p2350
asbag68
(g89
g70
NtRp2351
(dp2352
g73
(dp2353
g100
g101
ssg82
g2342
sg75
(lp2354
S':'
asbag68
(g89
g70
NtRp2355
(dp2356
g73
(dp2357
sg82
g2342
sg75
(lp2358
g68
(g69
g70
NtRp2359
(dp2360
g73
(dp2361
g81
I4
ssg82
g2355
sg75
(lp2362
S'True'
p2363
asbasbasbag68
(g84
g70
NtRp2364
(dp2365
g73
(dp2366
sg82
g1573
sg75
(lp2367
g68
(g89
g70
NtRp2368
(dp2369
g73
(dp2370
g93
g94
ssg82
g2364
sg75
(lp2371
S'wsgi_run_once'
p2372
asbag68
(g89
g70
NtRp2373
(dp2374
g73
(dp2375
g100
g101
ssg82
g2364
sg75
(lp2376
S':'
asbag68
(g89
g70
NtRp2377
(dp2378
g73
(dp2379
sg82
g2364
sg75
(lp2380
g68
(g69
g70
NtRp2381
(dp2382
g73
(dp2383
g81
I4
ssg82
g2377
sg75
(lp2384
g111
asbasbasbag68
(g84
g70
NtRp2385
(dp2386
g73
(dp2387
sg82
g1573
sg75
(lp2388
g68
(g89
g70
NtRp2389
(dp2390
g73
(dp2391
g93
g94
ssg82
g2385
sg75
(lp2392
S'wsgi_url_scheme'
p2393
asbag68
(g89
g70
NtRp2394
(dp2395
g73
(dp2396
g100
g101
ssg82
g2385
sg75
(lp2397
S':'
asbag68
(g89
g70
NtRp2398
(dp2399
g73
(dp2400
sg82
g2385
sg75
(lp2401
g68
(g69
g70
NtRp2402
(dp2403
g73
(dp2404
g81
I4
ssg82
g2398
sg75
(lp2405
S'http'
p2406
asbasbasbag68
(g84
g70
NtRp2407
(dp2408
g73
(dp2409
sg82
g1573
sg75
(lp2410
g68
(g89
g70
NtRp2411
(dp2412
g73
(dp2413
g93
g94
ssg82
g2407
sg75
(lp2414
S'wsgi_version'
p2415
asbag68
(g89
g70
NtRp2416
(dp2417
g73
(dp2418
g100
g101
ssg82
g2407
sg75
(lp2419
S':'
asbag68
(g89
g70
NtRp2420
(dp2421
g73
(dp2422
sg82
g2407
sg75
(lp2423
g68
(g69
g70
NtRp2424
(dp2425
g73
(dp2426
g81
I4
ssg82
g2420
sg75
(lp2427
g68
(g77
g70
NtRp2428
(dp2429
g73
(dp2430
g81
I3
ssg82
Nsg75
(lp2431
g68
(g84
g70
NtRp2432
(dp2433
g73
(dp2434
sg82
g2428
sg75
(lp2435
g68
(g89
g70
NtRp2436
(dp2437
g73
(dp2438
sg82
g2432
sg75
(lp2439
g68
(g69
g70
NtRp2440
(dp2441
g73
(dp2442
g81
I3
ssg82
g2436
sg75
(lp2443
S'1'
asbasbasbag68
(g84
g70
NtRp2444
(dp2445
g73
(dp2446
sg82
g2428
sg75
(lp2447
g68
(g89
g70
NtRp2448
(dp2449
g73
(dp2450
sg82
g2444
sg75
(lp2451
g68
(g69
g70
NtRp2452
(dp2453
g73
(dp2454
g81
I3
ssg82
g2448
sg75
(lp2455
S'0'
asbasbasbasbasbasbasbasbasbasbasbag68
(g84
g70
NtRp2456
(dp2457
g73
(dp2458
sg82
g78
sg75
(lp2459
g68
(g89
g70
NtRp2460
(dp2461
g73
(dp2462
g93
g94
ssg82
g2456
sg75
(lp2463
S'extension'
p2464
asbag68
(g89
g70
NtRp2465
(dp2466
g73
(dp2467
g100
g101
ssg82
g2456
sg75
(lp2468
S':'
asbag68
(g89
g70
NtRp2469
(dp2470
g73
(dp2471
sg82
g2456
sg75
(lp2472
g68
(g69
g70
NtRp2473
(dp2474
g73
(dp2475
g81
I5
ssg82
g2469
sg75
(lp2476
S'html'
p2477
asbasbasbag68
(g84
g70
NtRp2478
(dp2479
g73
(dp2480
sg82
g78
sg75
(lp2481
g68
(g89
g70
NtRp2482
(dp2483
g73
(dp2484
g93
g94
ssg82
g2478
sg75
(lp2485
S'folder'
p2486
asbag68
(g89
g70
NtRp2487
(dp2488
g73
(dp2489
g100
g101
ssg82
g2478
sg75
(lp2490
S':'
asbag68
(g89
g70
NtRp2491
(dp2492
g73
(dp2493
sg82
g2478
sg75
(lp2494
g68
(g69
g70
NtRp2495
(dp2496
g73
(dp2497
g81
I5
ssg82
g2491
sg75
(lp2498
S'/home/strzel_a/web2py/applications/bench/'
p2499
asbasbasbag68
(g84
g70
NtRp2500
(dp2501
g73
(dp2502
sg82
g78
sg75
(lp2503
g68
(g89
g70
NtRp2504
(dp2505
g73
(dp2506
g93
g94
ssg82
g2500
sg75
(lp2507
S'function'
p2508
asbag68
(g89
g70
NtRp2509
(dp2510
g73
(dp2511
g100
g101
ssg82
g2500
sg75
(lp2512
S':'
asbag68
(g89
g70
NtRp2513
(dp2514
g73
(dp2515
sg82
g2500
sg75
(lp2516
g68
(g69
g70
NtRp2517
(dp2518
g73
(dp2519
g81
I5
ssg82
g2513
sg75
(lp2520
S'index'
p2521
asbasbasbag68
(g84
g70
NtRp2522
(dp2523
g73
(dp2524
sg82
g78
sg75
(lp2525
g68
(g89
g70
NtRp2526
(dp2527
g73
(dp2528
g93
g94
ssg82
g2522
sg75
(lp2529
S'get_vars'
p2530
asbag68
(g89
g70
NtRp2531
(dp2532
g73
(dp2533
g100
g101
ssg82
g2522
sg75
(lp2534
S':'
asbag68
(g89
g70
NtRp2535
(dp2536
g73
(dp2537
sg82
g2522
sg75
(lp2538
g68
(g69
g70
NtRp2539
(dp2540
g73
(dp2541
g81
I5
ssg82
g2535
sg75
(lp2542
g68
(g77
g70
NtRp2543
(dp2544
g73
(dp2545
g81
I4
ssg82
Nsg75
(lp2546
sbasbasbasbag68
(g84
g70
NtRp2547
(dp2548
g73
(dp2549
sg82
g78
sg75
(lp2550
g68
(g89
g70
NtRp2551
(dp2552
g73
(dp2553
g93
g94
ssg82
g2547
sg75
(lp2554
S'is_restful'
p2555
asbag68
(g89
g70
NtRp2556
(dp2557
g73
(dp2558
g100
g101
ssg82
g2547
sg75
(lp2559
S':'
asbag68
(g89
g70
NtRp2560
(dp2561
g73
(dp2562
sg82
g2547
sg75
(lp2563
g68
(g69
g70
NtRp2564
(dp2565
g73
(dp2566
g81
I5
ssg82
g2560
sg75
(lp2567
g111
asbasbasbag68
(g84
g70
NtRp2568
(dp2569
g73
(dp2570
sg82
g78
sg75
(lp2571
g68
(g89
g70
NtRp2572
(dp2573
g73
(dp2574
g93
g94
ssg82
g2568
sg75
(lp2575
S'now'
p2576
asbag68
(g89
g70
NtRp2577
(dp2578
g73
(dp2579
g100
g101
ssg82
g2568
sg75
(lp2580
S':'
asbag68
(g89
g70
NtRp2581
(dp2582
g73
(dp2583
sg82
g2568
sg75
(lp2584
g68
(g69
g70
NtRp2585
(dp2586
g73
(dp2587
g81
I5
ssg82
g2581
sg75
(lp2588
S'datetime.datetime(2011, 4, 28, 23, 35, 6, 889528)'
p2589
asbasbasbag68
(g84
g70
NtRp2590
(dp2591
g73
(dp2592
sg82
g78
sg75
(lp2593
g68
(g89
g70
NtRp2594
(dp2595
g73
(dp2596
g93
g94
ssg82
g2590
sg75
(lp2597
S'post_vars'
p2598
asbag68
(g89
g70
NtRp2599
(dp2600
g73
(dp2601
g100
g101
ssg82
g2590
sg75
(lp2602
S':'
asbag68
(g89
g70
NtRp2603
(dp2604
g73
(dp2605
sg82
g2590
sg75
(lp2606
g68
(g69
g70
NtRp2607
(dp2608
g73
(dp2609
g81
I5
ssg82
g2603
sg75
(lp2610
g68
(g77
g70
NtRp2611
(dp2612
g73
(dp2613
g81
I4
ssg82
Nsg75
(lp2614
sbasbasbasbag68
(g84
g70
NtRp2615
(dp2616
g73
(dp2617
sg82
g78
sg75
(lp2618
g68
(g89
g70
NtRp2619
(dp2620
g73
(dp2621
g93
g94
ssg82
g2615
sg75
(lp2622
S'url'
p2623
asbag68
(g89
g70
NtRp2624
(dp2625
g73
(dp2626
g100
g101
ssg82
g2615
sg75
(lp2627
S':'
asbag68
(g89
g70
NtRp2628
(dp2629
g73
(dp2630
sg82
g2615
sg75
(lp2631
g68
(g69
g70
NtRp2632
(dp2633
g73
(dp2634
g81
I5
ssg82
g2628
sg75
(lp2635
S'/bench/default/index'
p2636
asbasbasbag68
(g84
g70
NtRp2637
(dp2638
g73
(dp2639
sg82
g78
sg75
(lp2640
g68
(g89
g70
NtRp2641
(dp2642
g73
(dp2643
g93
g94
ssg82
g2637
sg75
(lp2644
S'uuid'
p2645
asbag68
(g89
g70
NtRp2646
(dp2647
g73
(dp2648
g100
g101
ssg82
g2637
sg75
(lp2649
S':'
asbag68
(g89
g70
NtRp2650
(dp2651
g73
(dp2652
sg82
g2637
sg75
(lp2653
g68
(g69
g70
NtRp2654
(dp2655
g73
(dp2656
g81
I5
ssg82
g2650
sg75
(lp2657
S'bench/127.0.0.1.2011-04-28.23-35-06.39525ca5-ea00-40d3-a6b5-082d80889b74'
p2658
asbasbasbag68
(g84
g70
NtRp2659
(dp2660
g73
(dp2661
sg82
g78
sg75
(lp2662
g68
(g89
g70
NtRp2663
(dp2664
g73
(dp2665
g93
g94
ssg82
g2659
sg75
(lp2666
S'vars'
p2667
asbag68
(g89
g70
NtRp2668
(dp2669
g73
(dp2670
g100
g101
ssg82
g2659
sg75
(lp2671
S':'
asbag68
(g89
g70
NtRp2672
(dp2673
g73
(dp2674
sg82
g2659
sg75
(lp2675
g68
(g69
g70
NtRp2676
(dp2677
g73
(dp2678
g81
I5
ssg82
g2672
sg75
(lp2679
g68
(g77
g70
NtRp2680
(dp2681
g73
(dp2682
g81
I4
ssg82
Nsg75
(lp2683
sbasbasbasbag68
(g84
g70
NtRp2684
(dp2685
g73
(dp2686
sg82
g78
sg75
(lp2687
g68
(g89
g70
NtRp2688
(dp2689
g73
(dp2690
g93
g94
ssg82
g2684
sg75
(lp2691
S'wsgi'
p2692
asbag68
(g89
g70
NtRp2693
(dp2694
g73
(dp2695
g100
g101
ssg82
g2684
sg75
(lp2696
S':'
asbag68
(g89
g70
NtRp2697
(dp2698
g73
(dp2699
sg82
g2684
sg75
(lp2700
g68
(g69
g70
NtRp2701
(dp2702
g73
(dp2703
g81
I5
ssg82
g2697
sg75
(lp2704
g68
(g77
g70
NtRp2705
(dp2706
g73
(dp2707
g81
I4
ssg82
Nsg75
(lp2708
g68
(g84
g70
NtRp2709
(dp2710
g73
(dp2711
sg82
g2705
sg75
(lp2712
g68
(g89
g70
NtRp2713
(dp2714
g73
(dp2715
g93
g94
ssg82
g2709
sg75
(lp2716
S'environ'
p2717
asbag68
(g89
g70
NtRp2718
(dp2719
g73
(dp2720
g100
g101
ssg82
g2709
sg75
(lp2721
S':'
asbag68
(g89
g70
NtRp2722
(dp2723
g73
(dp2724
sg82
g2709
sg75
(lp2725
g68
(g69
g70
NtRp2726
(dp2727
g73
(dp2728
g81
I4
ssg82
g2722
sg75
(lp2729
g68
(g77
g70
NtRp2730
(dp2731
g73
(dp2732
g81
I3
ssg82
Nsg75
(lp2733
g68
(g84
g70
NtRp2734
(dp2735
g73
(dp2736
sg82
g2730
sg75
(lp2737
g68
(g89
g70
NtRp2738
(dp2739
g73
(dp2740
g93
g94
ssg82
g2734
sg75
(lp2741
S'HTTP_ACCEPT'
p2742
asbag68
(g89
g70
NtRp2743
(dp2744
g73
(dp2745
g100
g101
ssg82
g2734
sg75
(lp2746
S':'
asbag68
(g89
g70
NtRp2747
(dp2748
g73
(dp2749
sg82
g2734
sg75
(lp2750
g68
(g69
g70
NtRp2751
(dp2752
g73
(dp2753
g81
I3
ssg82
g2747
sg75
(lp2754
g1754
asbasbasbag68
(g84
g70
NtRp2755
(dp2756
g73
(dp2757
sg82
g2730
sg75
(lp2758
g68
(g89
g70
NtRp2759
(dp2760
g73
(dp2761
g93
g94
ssg82
g2755
sg75
(lp2762
S'HTTP_ACCEPT_CHARSET'
p2763
asbag68
(g89
g70
NtRp2764
(dp2765
g73
(dp2766
g100
g101
ssg82
g2755
sg75
(lp2767
S':'
asbag68
(g89
g70
NtRp2768
(dp2769
g73
(dp2770
sg82
g2755
sg75
(lp2771
g68
(g69
g70
NtRp2772
(dp2773
g73
(dp2774
g81
I3
ssg82
g2768
sg75
(lp2775
g1776
asbasbasbag68
(g84
g70
NtRp2776
(dp2777
g73
(dp2778
sg82
g2730
sg75
(lp2779
g68
(g89
g70
NtRp2780
(dp2781
g73
(dp2782
g93
g94
ssg82
g2776
sg75
(lp2783
S'HTTP_ACCEPT_ENCODING'
p2784
asbag68
(g89
g70
NtRp2785
(dp2786
g73
(dp2787
g100
g101
ssg82
g2776
sg75
(lp2788
S':'
asbag68
(g89
g70
NtRp2789
(dp2790
g73
(dp2791
sg82
g2776
sg75
(lp2792
g68
(g69
g70
NtRp2793
(dp2794
g73
(dp2795
g81
I3
ssg82
g2789
sg75
(lp2796
g1798
asbasbasbag68
(g84
g70
NtRp2797
(dp2798
g73
(dp2799
sg82
g2730
sg75
(lp2800
g68
(g89
g70
NtRp2801
(dp2802
g73
(dp2803
g93
g94
ssg82
g2797
sg75
(lp2804
S'HTTP_ACCEPT_LANGUAGE'
p2805
asbag68
(g89
g70
NtRp2806
(dp2807
g73
(dp2808
g100
g101
ssg82
g2797
sg75
(lp2809
S':'
asbag68
(g89
g70
NtRp2810
(dp2811
g73
(dp2812
sg82
g2797
sg75
(lp2813
g68
(g69
g70
NtRp2814
(dp2815
g73
(dp2816
g81
I3
ssg82
g2810
sg75
(lp2817
g1820
asbasbasbag68
(g84
g70
NtRp2818
(dp2819
g73
(dp2820
sg82
g2730
sg75
(lp2821
g68
(g89
g70
NtRp2822
(dp2823
g73
(dp2824
g93
g94
ssg82
g2818
sg75
(lp2825
S'HTTP_CACHE_CONTROL'
p2826
asbag68
(g89
g70
NtRp2827
(dp2828
g73
(dp2829
g100
g101
ssg82
g2818
sg75
(lp2830
S':'
asbag68
(g89
g70
NtRp2831
(dp2832
g73
(dp2833
sg82
g2818
sg75
(lp2834
g68
(g69
g70
NtRp2835
(dp2836
g73
(dp2837
g81
I3
ssg82
g2831
sg75
(lp2838
g1842
asbasbasbag68
(g84
g70
NtRp2839
(dp2840
g73
(dp2841
sg82
g2730
sg75
(lp2842
g68
(g89
g70
NtRp2843
(dp2844
g73
(dp2845
g93
g94
ssg82
g2839
sg75
(lp2846
S'HTTP_CONNECTION'
p2847
asbag68
(g89
g70
NtRp2848
(dp2849
g73
(dp2850
g100
g101
ssg82
g2839
sg75
(lp2851
S':'
asbag68
(g89
g70
NtRp2852
(dp2853
g73
(dp2854
sg82
g2839
sg75
(lp2855
g68
(g69
g70
NtRp2856
(dp2857
g73
(dp2858
g81
I3
ssg82
g2852
sg75
(lp2859
g1864
asbasbasbag68
(g84
g70
NtRp2860
(dp2861
g73
(dp2862
sg82
g2730
sg75
(lp2863
g68
(g89
g70
NtRp2864
(dp2865
g73
(dp2866
g93
g94
ssg82
g2860
sg75
(lp2867
S'HTTP_COOKIE'
p2868
asbag68
(g89
g70
NtRp2869
(dp2870
g73
(dp2871
g100
g101
ssg82
g2860
sg75
(lp2872
S':'
asbag68
(g89
g70
NtRp2873
(dp2874
g73
(dp2875
sg82
g2860
sg75
(lp2876
g68
(g69
g70
NtRp2877
(dp2878
g73
(dp2879
g81
I3
ssg82
g2873
sg75
(lp2880
g1886
asbasbasbag68
(g84
g70
NtRp2881
(dp2882
g73
(dp2883
sg82
g2730
sg75
(lp2884
g68
(g89
g70
NtRp2885
(dp2886
g73
(dp2887
g93
g94
ssg82
g2881
sg75
(lp2888
S'HTTP_HOST'
p2889
asbag68
(g89
g70
NtRp2890
(dp2891
g73
(dp2892
g100
g101
ssg82
g2881
sg75
(lp2893
S':'
asbag68
(g89
g70
NtRp2894
(dp2895
g73
(dp2896
sg82
g2881
sg75
(lp2897
g68
(g69
g70
NtRp2898
(dp2899
g73
(dp2900
g81
I3
ssg82
g2894
sg75
(lp2901
g1908
asbasbasbag68
(g84
g70
NtRp2902
(dp2903
g73
(dp2904
sg82
g2730
sg75
(lp2905
g68
(g89
g70
NtRp2906
(dp2907
g73
(dp2908
g93
g94
ssg82
g2902
sg75
(lp2909
S'HTTP_USER_AGENT'
p2910
asbag68
(g89
g70
NtRp2911
(dp2912
g73
(dp2913
g100
g101
ssg82
g2902
sg75
(lp2914
S':'
asbag68
(g89
g70
NtRp2915
(dp2916
g73
(dp2917
sg82
g2902
sg75
(lp2918
g68
(g69
g70
NtRp2919
(dp2920
g73
(dp2921
g81
I3
ssg82
g2915
sg75
(lp2922
g1930
asbasbasbag68
(g84
g70
NtRp2923
(dp2924
g73
(dp2925
sg82
g2730
sg75
(lp2926
g68
(g89
g70
NtRp2927
(dp2928
g73
(dp2929
g93
g94
ssg82
g2923
sg75
(lp2930
S'PATH_INFO'
p2931
asbag68
(g89
g70
NtRp2932
(dp2933
g73
(dp2934
g100
g101
ssg82
g2923
sg75
(lp2935
S':'
asbag68
(g89
g70
NtRp2936
(dp2937
g73
(dp2938
sg82
g2923
sg75
(lp2939
g68
(g69
g70
NtRp2940
(dp2941
g73
(dp2942
g81
I3
ssg82
g2936
sg75
(lp2943
g1952
asbasbasbag68
(g84
g70
NtRp2944
(dp2945
g73
(dp2946
sg82
g2730
sg75
(lp2947
g68
(g89
g70
NtRp2948
(dp2949
g73
(dp2950
g93
g94
ssg82
g2944
sg75
(lp2951
S'QUERY_STRING'
p2952
asbag68
(g89
g70
NtRp2953
(dp2954
g73
(dp2955
g100
g101
ssg82
g2944
sg75
(lp2956
S':'
asbag68
(g89
g70
NtRp2957
(dp2958
g73
(dp2959
sg82
g2944
sg75
(lp2960
g68
(g69
g70
NtRp2961
(dp2962
g73
(dp2963
g81
I3
ssg82
g2957
sg75
(lp2964
S''
asbasbasbag68
(g84
g70
NtRp2965
(dp2966
g73
(dp2967
sg82
g2730
sg75
(lp2968
g68
(g89
g70
NtRp2969
(dp2970
g73
(dp2971
g93
g94
ssg82
g2965
sg75
(lp2972
S'REMOTE_ADDR'
p2973
asbag68
(g89
g70
NtRp2974
(dp2975
g73
(dp2976
g100
g101
ssg82
g2965
sg75
(lp2977
S':'
asbag68
(g89
g70
NtRp2978
(dp2979
g73
(dp2980
sg82
g2965
sg75
(lp2981
g68
(g69
g70
NtRp2982
(dp2983
g73
(dp2984
g81
I3
ssg82
g2978
sg75
(lp2985
g201
asbasbasbag68
(g84
g70
NtRp2986
(dp2987
g73
(dp2988
sg82
g2730
sg75
(lp2989
g68
(g89
g70
NtRp2990
(dp2991
g73
(dp2992
g93
g94
ssg82
g2986
sg75
(lp2993
S'REMOTE_PORT'
p2994
asbag68
(g89
g70
NtRp2995
(dp2996
g73
(dp2997
g100
g101
ssg82
g2986
sg75
(lp2998
S':'
asbag68
(g89
g70
NtRp2999
(dp3000
g73
(dp3001
sg82
g2986
sg75
(lp3002
g68
(g69
g70
NtRp3003
(dp3004
g73
(dp3005
g81
I3
ssg82
g2999
sg75
(lp3006
g2016
asbasbasbag68
(g84
g70
NtRp3007
(dp3008
g73
(dp3009
sg82
g2730
sg75
(lp3010
g68
(g89
g70
NtRp3011
(dp3012
g73
(dp3013
g93
g94
ssg82
g3007
sg75
(lp3014
S'REQUEST_METHOD'
p3015
asbag68
(g89
g70
NtRp3016
(dp3017
g73
(dp3018
g100
g101
ssg82
g3007
sg75
(lp3019
S':'
asbag68
(g89
g70
NtRp3020
(dp3021
g73
(dp3022
sg82
g3007
sg75
(lp3023
g68
(g69
g70
NtRp3024
(dp3025
g73
(dp3026
g81
I3
ssg82
g3020
sg75
(lp3027
g2038
asbasbasbag68
(g84
g70
NtRp3028
(dp3029
g73
(dp3030
sg82
g2730
sg75
(lp3031
g68
(g89
g70
NtRp3032
(dp3033
g73
(dp3034
g93
g94
ssg82
g3028
sg75
(lp3035
S'REQUEST_URI'
p3036
asbag68
(g89
g70
NtRp3037
(dp3038
g73
(dp3039
g100
g101
ssg82
g3028
sg75
(lp3040
S':'
asbag68
(g89
g70
NtRp3041
(dp3042
g73
(dp3043
sg82
g3028
sg75
(lp3044
g68
(g69
g70
NtRp3045
(dp3046
g73
(dp3047
g81
I3
ssg82
g3041
sg75
(lp3048
g1952
asbasbasbag68
(g84
g70
NtRp3049
(dp3050
g73
(dp3051
sg82
g2730
sg75
(lp3052
g68
(g89
g70
NtRp3053
(dp3054
g73
(dp3055
g93
g94
ssg82
g3049
sg75
(lp3056
S'SCRIPT_NAME'
p3057
asbag68
(g89
g70
NtRp3058
(dp3059
g73
(dp3060
g100
g101
ssg82
g3049
sg75
(lp3061
S':'
asbag68
(g89
g70
NtRp3062
(dp3063
g73
(dp3064
sg82
g3049
sg75
(lp3065
g68
(g69
g70
NtRp3066
(dp3067
g73
(dp3068
g81
I3
ssg82
g3062
sg75
(lp3069
S''
asbasbasbag68
(g84
g70
NtRp3070
(dp3071
g73
(dp3072
sg82
g2730
sg75
(lp3073
g68
(g89
g70
NtRp3074
(dp3075
g73
(dp3076
g93
g94
ssg82
g3070
sg75
(lp3077
S'SERVER_NAME'
p3078
asbag68
(g89
g70
NtRp3079
(dp3080
g73
(dp3081
g100
g101
ssg82
g3070
sg75
(lp3082
S':'
asbag68
(g89
g70
NtRp3083
(dp3084
g73
(dp3085
sg82
g3070
sg75
(lp3086
g68
(g69
g70
NtRp3087
(dp3088
g73
(dp3089
g81
I3
ssg82
g3083
sg75
(lp3090
g2102
asbasbasbag68
(g84
g70
NtRp3091
(dp3092
g73
(dp3093
sg82
g2730
sg75
(lp3094
g68
(g89
g70
NtRp3095
(dp3096
g73
(dp3097
g93
g94
ssg82
g3091
sg75
(lp3098
S'SERVER_PORT'
p3099
asbag68
(g89
g70
NtRp3100
(dp3101
g73
(dp3102
g100
g101
ssg82
g3091
sg75
(lp3103
S':'
asbag68
(g89
g70
NtRp3104
(dp3105
g73
(dp3106
sg82
g3091
sg75
(lp3107
g68
(g69
g70
NtRp3108
(dp3109
g73
(dp3110
g81
I3
ssg82
g3104
sg75
(lp3111
g2124
asbasbasbag68
(g84
g70
NtRp3112
(dp3113
g73
(dp3114
sg82
g2730
sg75
(lp3115
g68
(g89
g70
NtRp3116
(dp3117
g73
(dp3118
g93
g94
ssg82
g3112
sg75
(lp3119
S'SERVER_PROTOCOL'
p3120
asbag68
(g89
g70
NtRp3121
(dp3122
g73
(dp3123
g100
g101
ssg82
g3112
sg75
(lp3124
S':'
asbag68
(g89
g70
NtRp3125
(dp3126
g73
(dp3127
sg82
g3112
sg75
(lp3128
g68
(g69
g70
NtRp3129
(dp3130
g73
(dp3131
g81
I3
ssg82
g3125
sg75
(lp3132
g2146
asbasbasbag68
(g84
g70
NtRp3133
(dp3134
g73
(dp3135
sg82
g2730
sg75
(lp3136
g68
(g89
g70
NtRp3137
(dp3138
g73
(dp3139
g93
g94
ssg82
g3133
sg75
(lp3140
S'SERVER_SOFTWARE'
p3141
asbag68
(g89
g70
NtRp3142
(dp3143
g73
(dp3144
g100
g101
ssg82
g3133
sg75
(lp3145
S':'
asbag68
(g89
g70
NtRp3146
(dp3147
g73
(dp3148
sg82
g3133
sg75
(lp3149
g68
(g69
g70
NtRp3150
(dp3151
g73
(dp3152
g81
I3
ssg82
g3146
sg75
(lp3153
g2168
asbasbasbag68
(g84
g70
NtRp3154
(dp3155
g73
(dp3156
sg82
g2730
sg75
(lp3157
g68
(g89
g70
NtRp3158
(dp3159
g73
(dp3160
g93
g94
ssg82
g3154
sg75
(lp3161
S'WEB2PY_ORIGINAL_URI'
p3162
asbag68
(g89
g70
NtRp3163
(dp3164
g73
(dp3165
g100
g101
ssg82
g3154
sg75
(lp3166
S':'
asbag68
(g89
g70
NtRp3167
(dp3168
g73
(dp3169
sg82
g3154
sg75
(lp3170
g68
(g69
g70
NtRp3171
(dp3172
g73
(dp3173
g81
I3
ssg82
g3167
sg75
(lp3174
g1952
asbasbasbag68
(g84
g70
NtRp3175
(dp3176
g73
(dp3177
sg82
g2730
sg75
(lp3178
g68
(g89
g70
NtRp3179
(dp3180
g73
(dp3181
g93
g94
ssg82
g3175
sg75
(lp3182
S'wsgi.errors'
p3183
asbag68
(g89
g70
NtRp3184
(dp3185
g73
(dp3186
g100
g101
ssg82
g3175
sg75
(lp3187
S':'
asbag68
(g89
g70
NtRp3188
(dp3189
g73
(dp3190
sg82
g3175
sg75
(lp3191
g68
(g69
g70
NtRp3192
(dp3193
g73
(dp3194
g81
I3
ssg82
g3188
sg75
(lp3195
S"<open file '<stderr>', mode 'w' at 0x7fd0cdd5d1e0>"
p3196
asbasbasbag68
(g84
g70
NtRp3197
(dp3198
g73
(dp3199
sg82
g2730
sg75
(lp3200
g68
(g89
g70
NtRp3201
(dp3202
g73
(dp3203
g93
g94
ssg82
g3197
sg75
(lp3204
S'wsgi.file_wrapper'
p3205
asbag68
(g89
g70
NtRp3206
(dp3207
g73
(dp3208
g100
g101
ssg82
g3197
sg75
(lp3209
S':'
asbag68
(g89
g70
NtRp3210
(dp3211
g73
(dp3212
sg82
g3197
sg75
(lp3213
g68
(g69
g70
NtRp3214
(dp3215
g73
(dp3216
g81
I3
ssg82
g3210
sg75
(lp3217
S'<class gluon.rocket.FileWrapper at 0x187cad0>'
p3218
asbasbasbag68
(g84
g70
NtRp3219
(dp3220
g73
(dp3221
sg82
g2730
sg75
(lp3222
g68
(g89
g70
NtRp3223
(dp3224
g73
(dp3225
g93
g94
ssg82
g3219
sg75
(lp3226
S'wsgi.input'
p3227
asbag68
(g89
g70
NtRp3228
(dp3229
g73
(dp3230
g100
g101
ssg82
g3219
sg75
(lp3231
S':'
asbag68
(g89
g70
NtRp3232
(dp3233
g73
(dp3234
sg82
g3219
sg75
(lp3235
g68
(g69
g70
NtRp3236
(dp3237
g73
(dp3238
g81
I3
ssg82
g3232
sg75
(lp3239
S'<cStringIO.StringO object at 0x2a758b8>'
p3240
asbasbasbag68
(g84
g70
NtRp3241
(dp3242
g73
(dp3243
sg82
g2730
sg75
(lp3244
g68
(g89
g70
NtRp3245
(dp3246
g73
(dp3247
g93
g94
ssg82
g3241
sg75
(lp3248
S'wsgi.multiprocess'
p3249
asbag68
(g89
g70
NtRp3250
(dp3251
g73
(dp3252
g100
g101
ssg82
g3241
sg75
(lp3253
S':'
asbag68
(g89
g70
NtRp3254
(dp3255
g73
(dp3256
sg82
g3241
sg75
(lp3257
g68
(g69
g70
NtRp3258
(dp3259
g73
(dp3260
g81
I3
ssg82
g3254
sg75
(lp3261
g111
asbasbasbag68
(g84
g70
NtRp3262
(dp3263
g73
(dp3264
sg82
g2730
sg75
(lp3265
g68
(g89
g70
NtRp3266
(dp3267
g73
(dp3268
g93
g94
ssg82
g3262
sg75
(lp3269
S'wsgi.multithread'
p3270
asbag68
(g89
g70
NtRp3271
(dp3272
g73
(dp3273
g100
g101
ssg82
g3262
sg75
(lp3274
S':'
asbag68
(g89
g70
NtRp3275
(dp3276
g73
(dp3277
sg82
g3262
sg75
(lp3278
g68
(g69
g70
NtRp3279
(dp3280
g73
(dp3281
g81
I3
ssg82
g3275
sg75
(lp3282
g2363
asbasbasbag68
(g84
g70
NtRp3283
(dp3284
g73
(dp3285
sg82
g2730
sg75
(lp3286
g68
(g89
g70
NtRp3287
(dp3288
g73
(dp3289
g93
g94
ssg82
g3283
sg75
(lp3290
S'wsgi.run_once'
p3291
asbag68
(g89
g70
NtRp3292
(dp3293
g73
(dp3294
g100
g101
ssg82
g3283
sg75
(lp3295
S':'
asbag68
(g89
g70
NtRp3296
(dp3297
g73
(dp3298
sg82
g3283
sg75
(lp3299
g68
(g69
g70
NtRp3300
(dp3301
g73
(dp3302
g81
I3
ssg82
g3296
sg75
(lp3303
g111
asbasbasbag68
(g84
g70
NtRp3304
(dp3305
g73
(dp3306
sg82
g2730
sg75
(lp3307
g68
(g89
g70
NtRp3308
(dp3309
g73
(dp3310
g93
g94
ssg82
g3304
sg75
(lp3311
S'wsgi.url_scheme'
p3312
asbag68
(g89
g70
NtRp3313
(dp3314
g73
(dp3315
g100
g101
ssg82
g3304
sg75
(lp3316
S':'
asbag68
(g89
g70
NtRp3317
(dp3318
g73
(dp3319
sg82
g3304
sg75
(lp3320
g68
(g69
g70
NtRp3321
(dp3322
g73
(dp3323
g81
I3
ssg82
g3317
sg75
(lp3324
g2406
asbasbasbag68
(g84
g70
NtRp3325
(dp3326
g73
(dp3327
sg82
g2730
sg75
(lp3328
g68
(g89
g70
NtRp3329
(dp3330
g73
(dp3331
g93
g94
ssg82
g3325
sg75
(lp3332
S'wsgi.version'
p3333
asbag68
(g89
g70
NtRp3334
(dp3335
g73
(dp3336
g100
g101
ssg82
g3325
sg75
(lp3337
S':'
asbag68
(g89
g70
NtRp3338
(dp3339
g73
(dp3340
sg82
g3325
sg75
(lp3341
g68
(g69
g70
NtRp3342
(dp3343
g73
(dp3344
g81
I3
ssg82
g3338
sg75
(lp3345
S'1'
asbasbasbasbasbasbasbasbasbasbasbasbasbsS'frames'
p3346
(lp3347
(dp3348
S'file'
p3349
S'/home/strzel_a/web2py/gluon/restricted.py'
p3350
sS'dump'
p3351
(dp3352
S'environment'
p3353
S"{'A': <class 'gluon.html.A'>, 'Auth': <class 'gluon.tools.Auth'>, 'B': <class 'gluon.html.B'>, 'BEAUTIFY': <class 'gluon.html.BEAUTIFY'>, 'BODY': <class 'gluon.html.BODY'>, 'BR': <class 'gluon.html.BR'>, 'CENTER': <class 'gluon.html.CENTER'>, 'CLEANUP': <class 'gluon.validators.CLEANUP'>, 'CODE': <class 'gluon.html.CODE'>, 'CRYPT': <class 'gluon.validators.CRYPT'>, ...}"
p3354
sS'ccode'
p3355
S'<code object <module> at 0x24bae40, file "/home/...lications/bench/models/minification.py", line 13>'
p3356
ssS'lnum'
p3357
I181
sS'lines'
p3358
(dp3359
I176
S'    try:'
p3360
sI177
S'        if type(code) == types.CodeType:'
p3361
sI178
S'            ccode = code'
p3362
sI179
S'        else:'
p3363
sI180
S'            ccode = compile2(code,layer)'
p3364
sI181
S'        exec ccode in environment'
p3365
sI182
S'    except HTTP:'
p3366
sI183
S'        raise'
p3367
sI184
S'    except Exception:'
p3368
sI185
S'        # XXX Show exception in Wing IDE if running in debugger'
p3369
ssS'call'
p3370
S'(code="# -*- coding: utf-8 -*-\\n\\n#######################...css\')]\\n    js_files = [URL(\'static\', \'min.js\')]\\n\\n", environment={\'A\': <class \'gluon.html.A\'>, \'Auth\': <class \'gluon.tools.Auth\'>, \'B\': <class \'gluon.html.B\'>, \'BEAUTIFY\': <class \'gluon.html.BEAUTIFY\'>, \'BODY\': <class \'gluon.html.BODY\'>, \'BR\': <class \'gluon.html.BR\'>, \'CENTER\': <class \'gluon.html.CENTER\'>, \'CLEANUP\': <class \'gluon.validators.CLEANUP\'>, \'CODE\': <class \'gluon.html.CODE\'>, \'CRYPT\': <class \'gluon.validators.CRYPT\'>, ...}, layer=\'/home/strzel_a/web2py/applications/bench/models/minification.py\')'
p3371
sS'func'
p3372
S'restricted'
p3373
sa(dp3374
g3349
S'/home/strzel_a/web2py/applications/bench/models/minification.py'
p3375
sg3351
(dp3376
S'minify_prod'
p3377
S'<function minify_prod>'
p3378
ssg3357
I50
sg3358
(dp3379
I44
S"    compress.process_js(js_files, request.folder, 'min.js')"
p3380
sI45
S'prod = True'
p3381
sI46
S'#'
sI47
S'#'
sI48
S'#'
sI49
S'if prod==True:'
p3382
sI50
S'    minify_prod()'
p3383
sI51
S"    css_files = [URL('static', 'min.css')]"
p3384
sI52
S"    js_files = [URL('static', 'min.js')]"
p3385
sI53
S''
ssg3370
S'()'
p3386
sg3372
S'<module>'
p3387
sa(dp3388
g3349
S'/home/strzel_a/web2py/applications/bench/models/minification.py'
p3389
sg3351
(dp3390
S'builtinTrue'
p3391
g2363
sS'builtinreload'
p3392
S'<built-in function reload>'
p3393
sS'compress'
p3394
S'undefined'
p3395
sS'global local_import'
p3396
S'<function <lambda>>'
p3397
ssg3357
I42
sg3358
(dp3398
I37
S'    # on production environment'
p3399
sI38
S'    #'
p3400
sI39
S'    logger.info("+----------- File minification")'
p3401
sI40
S'    global css_files'
p3402
sI41
S'    global js_files'
p3403
sI42
S"    compress = local_import('pack', reload=True)"
p3404
sI43
S"    compress.process_css(css_files, request.folder, 'min.css')"
p3405
sI44
S"    compress.process_js(js_files, request.folder, 'min.js')"
p3406
sI45
S'prod = True'
p3407
sI46
S'#'
ssg3370
S'()'
p3408
sg3372
S'minify_prod'
p3409
sa(dp3410
g3349
S'/home/strzel_a/web2py/gluon/compileapp.py'
p3411
sg3351
(dp3412
S'global local_import_aux'
p3413
S'<function local_import_aux>'
p3414
sS'reload'
p3415
g2363
sS'app'
p3416
S"'bench'"
p3417
sS'name'
p3418
S"'pack'"
p3419
ssg3357
I238
sg3358
(dp3420
I233
S"    environment['SQLFORM'] = SQLFORM"
p3421
sI234
S"    environment['SQLTABLE'] = SQLTABLE"
p3422
sI235
S"    environment['LOAD'] = LoadFactory(environment)"
p3423
sI236
S"    environment['local_import'] = \\"
p3424
sI237
S'        lambda name, reload=False, app=request.application:\\'
p3425
sI238
S'        local_import_aux(name,reload,app)'
p3426
sI239
S"    BaseAdapter.set_folder(os.path.join(request.folder, 'databases'))"
p3427
sI240
S'    response._view_environment = copy.copy(environment)'
p3428
sI241
S'    return environment'
p3429
sI242
S''
ssg3370
S"(name='pack', reload=True, app='bench')"
p3430
sg3372
S'<lambda>'
p3431
sa(dp3432
g3349
S'/home/strzel_a/web2py/gluon/compileapp.py'
p3433
sg3351
(dp3434
S'module'
p3435
S"<module 'applications.bench.modules.pack' from 'applications/bench/modules/pack.pyc'>"
p3436
sS'builtinreload'
p3437
S'<built-in function reload>'
p3438
ssg3357
I173
sg3358
(dp3439
I168
S'    name = "applications.%s.modules.%s" % (app, items)'
p3440
sI169
S'    module = __import__(name)'
p3441
sI170
S'    for item in name.split(".")[1:]:'
p3442
sI171
S'        module = getattr(module, item)'
p3443
sI172
S'    if force:'
p3444
sI173
S'        reload(module)'
p3445
sI174
S'    return module'
p3446
sI175
S''
sI176
S''
sI177
S'"""'
p3447
ssg3370
S"(name='applications.bench.modules.pack', force=True, app='bench')"
p3448
sg3372
S'local_import_aux'
p3449
sasS'pyver'
p3450
S'Python 2.6.6: /usr/bin/python'
p3451
sS'session'
p3452
g68
(g69
g70
NtRp3453
(dp3454
g73
(dp3455
sg75
(lp3456
g68
(g77
g70
NtRp3457
(dp3458
g73
(dp3459
g81
I5
ssg82
Nsg75
(lp3460
g68
(g84
g70
NtRp3461
(dp3462
g73
(dp3463
sg82
g3457
sg75
(lp3464
g68
(g89
g70
NtRp3465
(dp3466
g73
(dp3467
g93
g94
ssg82
g3461
sg75
(lp3468
S'last_query'
p3469
asbag68
(g89
g70
NtRp3470
(dp3471
g73
(dp3472
g100
g101
ssg82
g3461
sg75
(lp3473
S':'
asbag68
(g89
g70
NtRp3474
(dp3475
g73
(dp3476
sg82
g3461
sg75
(lp3477
g68
(g69
g70
NtRp3478
(dp3479
g73
(dp3480
g81
I5
ssg82
g3474
sg75
(lp3481
S'db.articles.id>0'
p3482
asbasbasbasbasbsS'etype'
p3483
S"<type 'exceptions.SyntaxError'>"
p3484
sS'date'
p3485
S'Thu Apr 28 23:35:06 2011'
p3486
sS'response'
p3487
g68
(g69
g70
NtRp3488
(dp3489
g73
(dp3490
sg75
(lp3491
g68
(g77
g70
NtRp3492
(dp3493
g73
(dp3494
g81
I5
ssg82
Nsg75
(lp3495
g68
(g84
g70
NtRp3496
(dp3497
g73
(dp3498
sg82
g3492
sg75
(lp3499
g68
(g89
g70
NtRp3500
(dp3501
g73
(dp3502
g93
g94
ssg82
g3496
sg75
(lp3503
g166
asbag68
(g89
g70
NtRp3504
(dp3505
g73
(dp3506
g100
g101
ssg82
g3496
sg75
(lp3507
S':'
asbag68
(g89
g70
NtRp3508
(dp3509
g73
(dp3510
sg82
g3496
sg75
(lp3511
g68
(g69
g70
NtRp3512
(dp3513
g73
(dp3514
g81
I5
ssg82
g3508
sg75
(lp3515
S'<cStringIO.StringO object at 0x2657c70>'
p3516
asbasbasbag68
(g84
g70
NtRp3517
(dp3518
g73
(dp3519
sg82
g3492
sg75
(lp3520
g68
(g89
g70
NtRp3521
(dp3522
g73
(dp3523
g93
g94
ssg82
g3517
sg75
(lp3524
g232
asbag68
(g89
g70
NtRp3525
(dp3526
g73
(dp3527
g100
g101
ssg82
g3517
sg75
(lp3528
S':'
asbag68
(g89
g70
NtRp3529
(dp3530
g73
(dp3531
sg82
g3517
sg75
(lp3532
g68
(g69
g70
NtRp3533
(dp3534
g73
(dp3535
g81
I5
ssg82
g3529
sg75
(lp3536
g68
(g77
g70
NtRp3537
(dp3538
g73
(dp3539
g81
I4
ssg82
Nsg75
(lp3540
g68
(g84
g70
NtRp3541
(dp3542
g73
(dp3543
sg82
g3537
sg75
(lp3544
g68
(g89
g70
NtRp3545
(dp3546
g73
(dp3547
g93
g94
ssg82
g3541
sg75
(lp3548
S'session_id_bench'
p3549
asbag68
(g89
g70
NtRp3550
(dp3551
g73
(dp3552
g100
g101
ssg82
g3541
sg75
(lp3553
S':'
asbag68
(g89
g70
NtRp3554
(dp3555
g73
(dp3556
sg82
g3541
sg75
(lp3557
g68
(g69
g70
NtRp3558
(dp3559
g73
(dp3560
g81
I4
ssg82
g3554
sg75
(lp3561
g68
(g77
g70
NtRp3562
(dp3563
g73
(dp3564
g81
I3
ssg82
Nsg75
(lp3565
g68
(g84
g70
NtRp3566
(dp3567
g73
(dp3568
sg82
g3562
sg75
(lp3569
g68
(g89
g70
NtRp3570
(dp3571
g73
(dp3572
g93
g94
ssg82
g3566
sg75
(lp3573
g282
asbag68
(g89
g70
NtRp3574
(dp3575
g73
(dp3576
g100
g101
ssg82
g3566
sg75
(lp3577
S':'
asbag68
(g89
g70
NtRp3578
(dp3579
g73
(dp3580
sg82
g3566
sg75
(lp3581
g68
(g69
g70
NtRp3582
(dp3583
g73
(dp3584
g81
I3
ssg82
g3578
sg75
(lp3585
S''
asbasbasbag68
(g84
g70
NtRp3586
(dp3587
g73
(dp3588
sg82
g3562
sg75
(lp3589
g68
(g89
g70
NtRp3590
(dp3591
g73
(dp3592
g93
g94
ssg82
g3586
sg75
(lp3593
g303
asbag68
(g89
g70
NtRp3594
(dp3595
g73
(dp3596
g100
g101
ssg82
g3586
sg75
(lp3597
S':'
asbag68
(g89
g70
NtRp3598
(dp3599
g73
(dp3600
sg82
g3586
sg75
(lp3601
g68
(g69
g70
NtRp3602
(dp3603
g73
(dp3604
g81
I3
ssg82
g3598
sg75
(lp3605
S''
asbasbasbag68
(g84
g70
NtRp3606
(dp3607
g73
(dp3608
sg82
g3562
sg75
(lp3609
g68
(g89
g70
NtRp3610
(dp3611
g73
(dp3612
g93
g94
ssg82
g3606
sg75
(lp3613
g324
asbag68
(g89
g70
NtRp3614
(dp3615
g73
(dp3616
g100
g101
ssg82
g3606
sg75
(lp3617
S':'
asbag68
(g89
g70
NtRp3618
(dp3619
g73
(dp3620
sg82
g3606
sg75
(lp3621
g68
(g69
g70
NtRp3622
(dp3623
g73
(dp3624
g81
I3
ssg82
g3618
sg75
(lp3625
S''
asbasbasbag68
(g84
g70
NtRp3626
(dp3627
g73
(dp3628
sg82
g3562
sg75
(lp3629
g68
(g89
g70
NtRp3630
(dp3631
g73
(dp3632
g93
g94
ssg82
g3626
sg75
(lp3633
g345
asbag68
(g89
g70
NtRp3634
(dp3635
g73
(dp3636
g100
g101
ssg82
g3626
sg75
(lp3637
S':'
asbag68
(g89
g70
NtRp3638
(dp3639
g73
(dp3640
sg82
g3626
sg75
(lp3641
g68
(g69
g70
NtRp3642
(dp3643
g73
(dp3644
g81
I3
ssg82
g3638
sg75
(lp3645
S''
asbasbasbag68
(g84
g70
NtRp3646
(dp3647
g73
(dp3648
sg82
g3562
sg75
(lp3649
g68
(g89
g70
NtRp3650
(dp3651
g73
(dp3652
g93
g94
ssg82
g3646
sg75
(lp3653
g366
asbag68
(g89
g70
NtRp3654
(dp3655
g73
(dp3656
g100
g101
ssg82
g3646
sg75
(lp3657
S':'
asbag68
(g89
g70
NtRp3658
(dp3659
g73
(dp3660
sg82
g3646
sg75
(lp3661
g68
(g69
g70
NtRp3662
(dp3663
g73
(dp3664
g81
I3
ssg82
g3658
sg75
(lp3665
S''
asbasbasbag68
(g84
g70
NtRp3666
(dp3667
g73
(dp3668
sg82
g3562
sg75
(lp3669
g68
(g89
g70
NtRp3670
(dp3671
g73
(dp3672
g93
g94
ssg82
g3666
sg75
(lp3673
g387
asbag68
(g89
g70
NtRp3674
(dp3675
g73
(dp3676
g100
g101
ssg82
g3666
sg75
(lp3677
S':'
asbag68
(g89
g70
NtRp3678
(dp3679
g73
(dp3680
sg82
g3666
sg75
(lp3681
g68
(g69
g70
NtRp3682
(dp3683
g73
(dp3684
g81
I3
ssg82
g3678
sg75
(lp3685
S'/'
asbasbasbag68
(g84
g70
NtRp3686
(dp3687
g73
(dp3688
sg82
g3562
sg75
(lp3689
g68
(g89
g70
NtRp3690
(dp3691
g73
(dp3692
g93
g94
ssg82
g3686
sg75
(lp3693
g408
asbag68
(g89
g70
NtRp3694
(dp3695
g73
(dp3696
g100
g101
ssg82
g3686
sg75
(lp3697
S':'
asbag68
(g89
g70
NtRp3698
(dp3699
g73
(dp3700
sg82
g3686
sg75
(lp3701
g68
(g69
g70
NtRp3702
(dp3703
g73
(dp3704
g81
I3
ssg82
g3698
sg75
(lp3705
S''
asbasbasbag68
(g84
g70
NtRp3706
(dp3707
g73
(dp3708
sg82
g3562
sg75
(lp3709
g68
(g89
g70
NtRp3710
(dp3711
g73
(dp3712
g93
g94
ssg82
g3706
sg75
(lp3713
g429
asbag68
(g89
g70
NtRp3714
(dp3715
g73
(dp3716
g100
g101
ssg82
g3706
sg75
(lp3717
S':'
asbag68
(g89
g70
NtRp3718
(dp3719
g73
(dp3720
sg82
g3706
sg75
(lp3721
g68
(g69
g70
NtRp3722
(dp3723
g73
(dp3724
g81
I3
ssg82
g3718
sg75
(lp3725
S''
asbasbasbasbasbasbasbasbasbasbasbag68
(g84
g70
NtRp3726
(dp3727
g73
(dp3728
sg82
g3492
sg75
(lp3729
g68
(g89
g70
NtRp3730
(dp3731
g73
(dp3732
g93
g94
ssg82
g3726
sg75
(lp3733
S'files'
p3734
asbag68
(g89
g70
NtRp3735
(dp3736
g73
(dp3737
g100
g101
ssg82
g3726
sg75
(lp3738
S':'
asbag68
(g89
g70
NtRp3739
(dp3740
g73
(dp3741
sg82
g3726
sg75
(lp3742
g68
(g69
g70
NtRp3743
(dp3744
g73
(dp3745
g81
I5
ssg82
g3739
sg75
(lp3746
g68
(g77
g70
NtRp3747
(dp3748
g73
(dp3749
g81
I4
ssg82
Nsg75
(lp3750
sbasbasbasbag68
(g84
g70
NtRp3751
(dp3752
g73
(dp3753
sg82
g3492
sg75
(lp3754
g68
(g89
g70
NtRp3755
(dp3756
g73
(dp3757
g93
g94
ssg82
g3751
sg75
(lp3758
S'flash'
p3759
asbag68
(g89
g70
NtRp3760
(dp3761
g73
(dp3762
g100
g101
ssg82
g3751
sg75
(lp3763
S':'
asbag68
(g89
g70
NtRp3764
(dp3765
g73
(dp3766
sg82
g3751
sg75
(lp3767
g68
(g69
g70
NtRp3768
(dp3769
g73
(dp3770
g81
I5
ssg82
g3764
sg75
(lp3771
S''
asbasbasbag68
(g84
g70
NtRp3772
(dp3773
g73
(dp3774
sg82
g3492
sg75
(lp3775
g68
(g89
g70
NtRp3776
(dp3777
g73
(dp3778
g93
g94
ssg82
g3772
sg75
(lp3779
S'headers'
p3780
asbag68
(g89
g70
NtRp3781
(dp3782
g73
(dp3783
g100
g101
ssg82
g3772
sg75
(lp3784
S':'
asbag68
(g89
g70
NtRp3785
(dp3786
g73
(dp3787
sg82
g3772
sg75
(lp3788
g68
(g69
g70
NtRp3789
(dp3790
g73
(dp3791
g81
I5
ssg82
g3785
sg75
(lp3792
g68
(g77
g70
NtRp3793
(dp3794
g73
(dp3795
g81
I4
ssg82
Nsg75
(lp3796
g68
(g84
g70
NtRp3797
(dp3798
g73
(dp3799
sg82
g3793
sg75
(lp3800
g68
(g89
g70
NtRp3801
(dp3802
g73
(dp3803
g93
g94
ssg82
g3797
sg75
(lp3804
S'Cache-Control'
p3805
asbag68
(g89
g70
NtRp3806
(dp3807
g73
(dp3808
g100
g101
ssg82
g3797
sg75
(lp3809
S':'
asbag68
(g89
g70
NtRp3810
(dp3811
g73
(dp3812
sg82
g3797
sg75
(lp3813
g68
(g69
g70
NtRp3814
(dp3815
g73
(dp3816
g81
I4
ssg82
g3810
sg75
(lp3817
S'no-store, no-cache, must-revalidate, post-check=0, pre-check=0'
p3818
asbasbasbag68
(g84
g70
NtRp3819
(dp3820
g73
(dp3821
sg82
g3793
sg75
(lp3822
g68
(g89
g70
NtRp3823
(dp3824
g73
(dp3825
g93
g94
ssg82
g3819
sg75
(lp3826
S'Content-Type'
p3827
asbag68
(g89
g70
NtRp3828
(dp3829
g73
(dp3830
g100
g101
ssg82
g3819
sg75
(lp3831
S':'
asbag68
(g89
g70
NtRp3832
(dp3833
g73
(dp3834
sg82
g3819
sg75
(lp3835
g68
(g69
g70
NtRp3836
(dp3837
g73
(dp3838
g81
I4
ssg82
g3832
sg75
(lp3839
S'text/html; charset=utf-8'
p3840
asbasbasbag68
(g84
g70
NtRp3841
(dp3842
g73
(dp3843
sg82
g3793
sg75
(lp3844
g68
(g89
g70
NtRp3845
(dp3846
g73
(dp3847
g93
g94
ssg82
g3841
sg75
(lp3848
S'Expires'
p3849
asbag68
(g89
g70
NtRp3850
(dp3851
g73
(dp3852
g100
g101
ssg82
g3841
sg75
(lp3853
S':'
asbag68
(g89
g70
NtRp3854
(dp3855
g73
(dp3856
sg82
g3841
sg75
(lp3857
g68
(g69
g70
NtRp3858
(dp3859
g73
(dp3860
g81
I4
ssg82
g3854
sg75
(lp3861
S'Thu, 28 Apr 2011 21:35:06 GMT'
p3862
asbasbasbag68
(g84
g70
NtRp3863
(dp3864
g73
(dp3865
sg82
g3793
sg75
(lp3866
g68
(g89
g70
NtRp3867
(dp3868
g73
(dp3869
g93
g94
ssg82
g3863
sg75
(lp3870
S'Pragma'
p3871
asbag68
(g89
g70
NtRp3872
(dp3873
g73
(dp3874
g100
g101
ssg82
g3863
sg75
(lp3875
S':'
asbag68
(g89
g70
NtRp3876
(dp3877
g73
(dp3878
sg82
g3863
sg75
(lp3879
g68
(g69
g70
NtRp3880
(dp3881
g73
(dp3882
g81
I4
ssg82
g3876
sg75
(lp3883
S'no-cache'
p3884
asbasbasbasbasbasbasbag68
(g84
g70
NtRp3885
(dp3886
g73
(dp3887
sg82
g3492
sg75
(lp3888
g68
(g89
g70
NtRp3889
(dp3890
g73
(dp3891
g93
g94
ssg82
g3885
sg75
(lp3892
S'menu'
p3893
asbag68
(g89
g70
NtRp3894
(dp3895
g73
(dp3896
g100
g101
ssg82
g3885
sg75
(lp3897
S':'
asbag68
(g89
g70
NtRp3898
(dp3899
g73
(dp3900
sg82
g3885
sg75
(lp3901
g68
(g69
g70
NtRp3902
(dp3903
g73
(dp3904
g81
I5
ssg82
g3898
sg75
(lp3905
g68
(g77
g70
NtRp3906
(dp3907
g73
(dp3908
g81
I4
ssg82
Nsg75
(lp3909
sbasbasbasbag68
(g84
g70
NtRp3910
(dp3911
g73
(dp3912
sg82
g3492
sg75
(lp3913
g68
(g89
g70
NtRp3914
(dp3915
g73
(dp3916
g93
g94
ssg82
g3910
sg75
(lp3917
S'meta'
p3918
asbag68
(g89
g70
NtRp3919
(dp3920
g73
(dp3921
g100
g101
ssg82
g3910
sg75
(lp3922
S':'
asbag68
(g89
g70
NtRp3923
(dp3924
g73
(dp3925
sg82
g3910
sg75
(lp3926
g68
(g69
g70
NtRp3927
(dp3928
g73
(dp3929
g81
I5
ssg82
g3923
sg75
(lp3930
g68
(g77
g70
NtRp3931
(dp3932
g73
(dp3933
g81
I4
ssg82
Nsg75
(lp3934
g68
(g84
g70
NtRp3935
(dp3936
g73
(dp3937
sg82
g3931
sg75
(lp3938
g68
(g89
g70
NtRp3939
(dp3940
g73
(dp3941
g93
g94
ssg82
g3935
sg75
(lp3942
S'author'
p3943
asbag68
(g89
g70
NtRp3944
(dp3945
g73
(dp3946
g100
g101
ssg82
g3935
sg75
(lp3947
S':'
asbag68
(g89
g70
NtRp3948
(dp3949
g73
(dp3950
sg82
g3935
sg75
(lp3951
g68
(g69
g70
NtRp3952
(dp3953
g73
(dp3954
g81
I4
ssg82
g3948
sg75
(lp3955
S'Strzelewicz Alexandre'
p3956
asbasbasbag68
(g84
g70
NtRp3957
(dp3958
g73
(dp3959
sg82
g3931
sg75
(lp3960
g68
(g89
g70
NtRp3961
(dp3962
g73
(dp3963
g93
g94
ssg82
g3957
sg75
(lp3964
S'copyright'
p3965
asbag68
(g89
g70
NtRp3966
(dp3967
g73
(dp3968
g100
g101
ssg82
g3957
sg75
(lp3969
S':'
asbag68
(g89
g70
NtRp3970
(dp3971
g73
(dp3972
sg82
g3957
sg75
(lp3973
g68
(g69
g70
NtRp3974
(dp3975
g73
(dp3976
g81
I4
ssg82
g3970
sg75
(lp3977
S'Copyright 2010-2012'
p3978
asbasbasbag68
(g84
g70
NtRp3979
(dp3980
g73
(dp3981
sg82
g3931
sg75
(lp3982
g68
(g89
g70
NtRp3983
(dp3984
g73
(dp3985
g93
g94
ssg82
g3979
sg75
(lp3986
S'description'
p3987
asbag68
(g89
g70
NtRp3988
(dp3989
g73
(dp3990
g100
g101
ssg82
g3979
sg75
(lp3991
S':'
asbag68
(g89
g70
NtRp3992
(dp3993
g73
(dp3994
sg82
g3979
sg75
(lp3995
g68
(g69
g70
NtRp3996
(dp3997
g73
(dp3998
g81
I4
ssg82
g3992
sg75
(lp3999
S''
asbasbasbag68
(g84
g70
NtRp4000
(dp4001
g73
(dp4002
sg82
g3931
sg75
(lp4003
g68
(g89
g70
NtRp4004
(dp4005
g73
(dp4006
g93
g94
ssg82
g4000
sg75
(lp4007
S'generator'
p4008
asbag68
(g89
g70
NtRp4009
(dp4010
g73
(dp4011
g100
g101
ssg82
g4000
sg75
(lp4012
S':'
asbag68
(g89
g70
NtRp4013
(dp4014
g73
(dp4015
sg82
g4000
sg75
(lp4016
g68
(g69
g70
NtRp4017
(dp4018
g73
(dp4019
g81
I4
ssg82
g4013
sg75
(lp4020
S''
asbasbasbag68
(g84
g70
NtRp4021
(dp4022
g73
(dp4023
sg82
g3931
sg75
(lp4024
g68
(g89
g70
NtRp4025
(dp4026
g73
(dp4027
g93
g94
ssg82
g4021
sg75
(lp4028
S'keywords'
p4029
asbag68
(g89
g70
NtRp4030
(dp4031
g73
(dp4032
g100
g101
ssg82
g4021
sg75
(lp4033
S':'
asbag68
(g89
g70
NtRp4034
(dp4035
g73
(dp4036
sg82
g4021
sg75
(lp4037
g68
(g69
g70
NtRp4038
(dp4039
g73
(dp4040
g81
I4
ssg82
g4034
sg75
(lp4041
S''
asbasbasbasbasbasbasbag68
(g84
g70
NtRp4042
(dp4043
g73
(dp4044
sg82
g3492
sg75
(lp4045
g68
(g89
g70
NtRp4046
(dp4047
g73
(dp4048
g93
g94
ssg82
g4042
sg75
(lp4049
S'postprocessing'
p4050
asbag68
(g89
g70
NtRp4051
(dp4052
g73
(dp4053
g100
g101
ssg82
g4042
sg75
(lp4054
S':'
asbag68
(g89
g70
NtRp4055
(dp4056
g73
(dp4057
sg82
g4042
sg75
(lp4058
g68
(g69
g70
NtRp4059
(dp4060
g73
(dp4061
g81
I5
ssg82
g4055
sg75
(lp4062
g68
(g77
g70
NtRp4063
(dp4064
g73
(dp4065
g81
I4
ssg82
Nsg75
(lp4066
sbasbasbasbag68
(g84
g70
NtRp4067
(dp4068
g73
(dp4069
sg82
g3492
sg75
(lp4070
g68
(g89
g70
NtRp4071
(dp4072
g73
(dp4073
g93
g94
ssg82
g4067
sg75
(lp4074
S'session_file'
p4075
asbag68
(g89
g70
NtRp4076
(dp4077
g73
(dp4078
g100
g101
ssg82
g4067
sg75
(lp4079
S':'
asbag68
(g89
g70
NtRp4080
(dp4081
g73
(dp4082
sg82
g4067
sg75
(lp4083
g68
(g69
g70
NtRp4084
(dp4085
g73
(dp4086
g81
I5
ssg82
g4080
sg75
(lp4087
S"<open file '/home/strzel_a/web2py/applications/bench/sessions/127.0.0.1-bd75bc63-5cd9-4975-a78e-056513a6b389', mode 'rb+' at 0x24a16f0>"
p4088
asbasbasbag68
(g84
g70
NtRp4089
(dp4090
g73
(dp4091
sg82
g3492
sg75
(lp4092
g68
(g89
g70
NtRp4093
(dp4094
g73
(dp4095
g93
g94
ssg82
g4089
sg75
(lp4096
S'session_filename'
p4097
asbag68
(g89
g70
NtRp4098
(dp4099
g73
(dp4100
g100
g101
ssg82
g4089
sg75
(lp4101
S':'
asbag68
(g89
g70
NtRp4102
(dp4103
g73
(dp4104
sg82
g4089
sg75
(lp4105
g68
(g69
g70
NtRp4106
(dp4107
g73
(dp4108
g81
I5
ssg82
g4102
sg75
(lp4109
S'/home/strzel_a/web2py/applications/bench/sessions/127.0.0.1-bd75bc63-5cd9-4975-a78e-056513a6b389'
p4110
asbasbasbag68
(g84
g70
NtRp4111
(dp4112
g73
(dp4113
sg82
g3492
sg75
(lp4114
g68
(g89
g70
NtRp4115
(dp4116
g73
(dp4117
g93
g94
ssg82
g4111
sg75
(lp4118
S'session_id'
p4119
asbag68
(g89
g70
NtRp4120
(dp4121
g73
(dp4122
g100
g101
ssg82
g4111
sg75
(lp4123
S':'
asbag68
(g89
g70
NtRp4124
(dp4125
g73
(dp4126
sg82
g4111
sg75
(lp4127
g68
(g69
g70
NtRp4128
(dp4129
g73
(dp4130
g81
I5
ssg82
g4124
sg75
(lp4131
S'127.0.0.1-bd75bc63-5cd9-4975-a78e-056513a6b389'
p4132
asbasbasbag68
(g84
g70
NtRp4133
(dp4134
g73
(dp4135
sg82
g3492
sg75
(lp4136
g68
(g89
g70
NtRp4137
(dp4138
g73
(dp4139
g93
g94
ssg82
g4133
sg75
(lp4140
S'session_id_name'
p4141
asbag68
(g89
g70
NtRp4142
(dp4143
g73
(dp4144
g100
g101
ssg82
g4133
sg75
(lp4145
S':'
asbag68
(g89
g70
NtRp4146
(dp4147
g73
(dp4148
sg82
g4133
sg75
(lp4149
g68
(g69
g70
NtRp4150
(dp4151
g73
(dp4152
g81
I5
ssg82
g4146
sg75
(lp4153
g3549
asbasbasbag68
(g84
g70
NtRp4154
(dp4155
g73
(dp4156
sg82
g3492
sg75
(lp4157
g68
(g89
g70
NtRp4158
(dp4159
g73
(dp4160
g93
g94
ssg82
g4154
sg75
(lp4161
S'session_locked'
p4162
asbag68
(g89
g70
NtRp4163
(dp4164
g73
(dp4165
g100
g101
ssg82
g4154
sg75
(lp4166
S':'
asbag68
(g89
g70
NtRp4167
(dp4168
g73
(dp4169
sg82
g4154
sg75
(lp4170
g68
(g69
g70
NtRp4171
(dp4172
g73
(dp4173
g81
I5
ssg82
g4167
sg75
(lp4174
g2363
asbasbasbag68
(g84
g70
NtRp4175
(dp4176
g73
(dp4177
sg82
g3492
sg75
(lp4178
g68
(g89
g70
NtRp4179
(dp4180
g73
(dp4181
g93
g94
ssg82
g4175
sg75
(lp4182
S'session_new'
p4183
asbag68
(g89
g70
NtRp4184
(dp4185
g73
(dp4186
g100
g101
ssg82
g4175
sg75
(lp4187
S':'
asbag68
(g89
g70
NtRp4188
(dp4189
g73
(dp4190
sg82
g4175
sg75
(lp4191
g68
(g69
g70
NtRp4192
(dp4193
g73
(dp4194
g81
I5
ssg82
g4188
sg75
(lp4195
g111
asbasbasbag68
(g84
g70
NtRp4196
(dp4197
g73
(dp4198
sg82
g3492
sg75
(lp4199
g68
(g89
g70
NtRp4200
(dp4201
g73
(dp4202
g93
g94
ssg82
g4196
sg75
(lp4203
S'status'
p4204
asbag68
(g89
g70
NtRp4205
(dp4206
g73
(dp4207
g100
g101
ssg82
g4196
sg75
(lp4208
S':'
asbag68
(g89
g70
NtRp4209
(dp4210
g73
(dp4211
sg82
g4196
sg75
(lp4212
g68
(g69
g70
NtRp4213
(dp4214
g73
(dp4215
g81
I5
ssg82
g4209
sg75
(lp4216
S'200'
p4217
asbasbasbag68
(g84
g70
NtRp4218
(dp4219
g73
(dp4220
sg82
g3492
sg75
(lp4221
g68
(g89
g70
NtRp4222
(dp4223
g73
(dp4224
g93
g94
ssg82
g4218
sg75
(lp4225
S'subtitle'
p4226
asbag68
(g89
g70
NtRp4227
(dp4228
g73
(dp4229
g100
g101
ssg82
g4218
sg75
(lp4230
S':'
asbag68
(g89
g70
NtRp4231
(dp4232
g73
(dp4233
sg82
g4218
sg75
(lp4234
g68
(g69
g70
NtRp4235
(dp4236
g73
(dp4237
g81
I5
ssg82
g4231
sg75
(lp4238
cgluon.languages
lazyT_unpickle
p4239
(S's\r\x00\x00\x00customize me!'
tRp4240
asbasbasbag68
(g84
g70
NtRp4241
(dp4242
g73
(dp4243
sg82
g3492
sg75
(lp4244
g68
(g89
g70
NtRp4245
(dp4246
g73
(dp4247
g93
g94
ssg82
g4241
sg75
(lp4248
S'title'
p4249
asbag68
(g89
g70
NtRp4250
(dp4251
g73
(dp4252
g100
g101
ssg82
g4241
sg75
(lp4253
S':'
asbag68
(g89
g70
NtRp4254
(dp4255
g73
(dp4256
sg82
g4241
sg75
(lp4257
g68
(g69
g70
NtRp4258
(dp4259
g73
(dp4260
g81
I5
ssg82
g4254
sg75
(lp4261
S'Template app'
p4262
asbasbasbag68
(g84
g70
NtRp4263
(dp4264
g73
(dp4265
sg82
g3492
sg75
(lp4266
g68
(g89
g70
NtRp4267
(dp4268
g73
(dp4269
g93
g94
ssg82
g4263
sg75
(lp4270
g2645
asbag68
(g89
g70
NtRp4271
(dp4272
g73
(dp4273
g100
g101
ssg82
g4263
sg75
(lp4274
S':'
asbag68
(g89
g70
NtRp4275
(dp4276
g73
(dp4277
sg82
g4263
sg75
(lp4278
g68
(g69
g70
NtRp4279
(dp4280
g73
(dp4281
g81
I5
ssg82
g4275
sg75
(lp4282
g2658
asbasbasbag68
(g84
g70
NtRp4283
(dp4284
g73
(dp4285
sg82
g3492
sg75
(lp4286
g68
(g89
g70
NtRp4287
(dp4288
g73
(dp4289
g93
g94
ssg82
g4283
sg75
(lp4290
S'view'
p4291
asbag68
(g89
g70
NtRp4292
(dp4293
g73
(dp4294
g100
g101
ssg82
g4283
sg75
(lp4295
S':'
asbag68
(g89
g70
NtRp4296
(dp4297
g73
(dp4298
sg82
g4283
sg75
(lp4299
g68
(g69
g70
NtRp4300
(dp4301
g73
(dp4302
g81
I5
ssg82
g4296
sg75
(lp4303
S'default/index.html'
p4304
asbasbasbasbasbsS'locals'
p4305
(dp4306
S'force'
p4307
g2363
sS'name'
p4308
S"'applications.bench.modules.pack'"
p4309
sS'items'
p4310
S"'pack'"
p4311
sS'app'
p4312
S"'bench'"
p4313
sS'module'
p4314
S"<module 'applications.bench.modules.pack' from 'applications/bench/modules/pack.pyc'>"
p4315
sS'item'
p4316
S"'pack'"
p4317
sssS'traceback'
p4318
S'Traceback (most recent call last):\n  File "/home/strzel_a/web2py/gluon/restricted.py", line 181, in restricted\n    exec ccode in environment\n  File "/home/strzel_a/web2py/applications/bench/models/minification.py", line 50, in <module>\n    minify_prod()\n  File "/home/strzel_a/web2py/applications/bench/models/minification.py", line 42, in minify_prod\n    compress = local_import(\'pack\', reload=True)\n  File "/home/strzel_a/web2py/gluon/compileapp.py", line 238, in <lambda>\n    local_import_aux(name,reload,app)\n  File "/home/strzel_a/web2py/gluon/compileapp.py", line 173, in local_import_aux\n    reload(module)\n  File "applications/bench/modules/pack.py", line 53\n    fd1 = open(app_path[:app_path.rfind(\'/\') + t, \'r\')\n                                                     ^\nSyntaxError: invalid syntax\n'
p4319
s.